
PCMmain.elf:     file format elf32-avr

Sections:
Idx Name          Size      VMA       LMA       File off  Algn
  0 .text         00006680  00000000  00000000  00000094  2**1
                  CONTENTS, ALLOC, LOAD, READONLY, CODE
  1 .data         00000002  00802000  00006680  00006714  2**0
                  CONTENTS, ALLOC, LOAD, DATA
  2 .bss          00000002  00802002  00802002  00006716  2**0
                  ALLOC
  3 .stab         00000714  00000000  00000000  00006718  2**2
                  CONTENTS, READONLY, DEBUGGING
  4 .stabstr      00000085  00000000  00000000  00006e2c  2**0
                  CONTENTS, READONLY, DEBUGGING
  5 .debug_aranges 00000080  00000000  00000000  00006eb8  2**3
                  CONTENTS, READONLY, DEBUGGING
  6 .debug_info   00000d91  00000000  00000000  00006f38  2**0
                  CONTENTS, READONLY, DEBUGGING
  7 .debug_abbrev 000001d1  00000000  00000000  00007cc9  2**0
                  CONTENTS, READONLY, DEBUGGING
  8 .debug_line   00000356  00000000  00000000  00007e9a  2**0
                  CONTENTS, READONLY, DEBUGGING
  9 .debug_frame  00000084  00000000  00000000  000081f0  2**2
                  CONTENTS, READONLY, DEBUGGING
 10 .debug_str    000007e0  00000000  00000000  00008274  2**0
                  CONTENTS, READONLY, DEBUGGING
 11 .debug_loc    000000e0  00000000  00000000  00008a54  2**0
                  CONTENTS, READONLY, DEBUGGING

Disassembly of section .text:

00000000 <__vectors>:
       0:	0c 94 94 32 	jmp	0x6528	; 0x6528 <__ctors_end>
       4:	0c 94 ba 32 	jmp	0x6574	; 0x6574 <__bad_interrupt>
       8:	0c 94 ba 32 	jmp	0x6574	; 0x6574 <__bad_interrupt>
       c:	0c 94 ba 32 	jmp	0x6574	; 0x6574 <__bad_interrupt>
      10:	0c 94 ba 32 	jmp	0x6574	; 0x6574 <__bad_interrupt>
      14:	0c 94 ba 32 	jmp	0x6574	; 0x6574 <__bad_interrupt>
      18:	0c 94 ba 32 	jmp	0x6574	; 0x6574 <__bad_interrupt>
      1c:	0c 94 ba 32 	jmp	0x6574	; 0x6574 <__bad_interrupt>
      20:	0c 94 ba 32 	jmp	0x6574	; 0x6574 <__bad_interrupt>
      24:	0c 94 ba 32 	jmp	0x6574	; 0x6574 <__bad_interrupt>
      28:	0c 94 ba 32 	jmp	0x6574	; 0x6574 <__bad_interrupt>
      2c:	0c 94 ba 32 	jmp	0x6574	; 0x6574 <__bad_interrupt>
      30:	0c 94 ba 32 	jmp	0x6574	; 0x6574 <__bad_interrupt>
      34:	0c 94 ba 32 	jmp	0x6574	; 0x6574 <__bad_interrupt>
      38:	0c 94 ba 32 	jmp	0x6574	; 0x6574 <__bad_interrupt>
      3c:	0c 94 ba 32 	jmp	0x6574	; 0x6574 <__bad_interrupt>
      40:	0c 94 ba 32 	jmp	0x6574	; 0x6574 <__bad_interrupt>
      44:	0c 94 ba 32 	jmp	0x6574	; 0x6574 <__bad_interrupt>
      48:	0c 94 ba 32 	jmp	0x6574	; 0x6574 <__bad_interrupt>
      4c:	0c 94 ba 32 	jmp	0x6574	; 0x6574 <__bad_interrupt>
      50:	0c 94 ba 32 	jmp	0x6574	; 0x6574 <__bad_interrupt>
      54:	0c 94 ba 32 	jmp	0x6574	; 0x6574 <__bad_interrupt>
      58:	0c 94 ba 32 	jmp	0x6574	; 0x6574 <__bad_interrupt>
      5c:	0c 94 ba 32 	jmp	0x6574	; 0x6574 <__bad_interrupt>
      60:	0c 94 ba 32 	jmp	0x6574	; 0x6574 <__bad_interrupt>
      64:	0c 94 ba 32 	jmp	0x6574	; 0x6574 <__bad_interrupt>
      68:	0c 94 ba 32 	jmp	0x6574	; 0x6574 <__bad_interrupt>
      6c:	0c 94 ba 32 	jmp	0x6574	; 0x6574 <__bad_interrupt>
      70:	0c 94 ba 32 	jmp	0x6574	; 0x6574 <__bad_interrupt>
      74:	0c 94 ba 32 	jmp	0x6574	; 0x6574 <__bad_interrupt>
      78:	0c 94 ba 32 	jmp	0x6574	; 0x6574 <__bad_interrupt>
      7c:	0c 94 ba 32 	jmp	0x6574	; 0x6574 <__bad_interrupt>
      80:	0c 94 ba 32 	jmp	0x6574	; 0x6574 <__bad_interrupt>
      84:	0c 94 ba 32 	jmp	0x6574	; 0x6574 <__bad_interrupt>
      88:	0c 94 ba 32 	jmp	0x6574	; 0x6574 <__bad_interrupt>
      8c:	0c 94 ba 32 	jmp	0x6574	; 0x6574 <__bad_interrupt>
      90:	0c 94 ba 32 	jmp	0x6574	; 0x6574 <__bad_interrupt>
      94:	0c 94 ba 32 	jmp	0x6574	; 0x6574 <__bad_interrupt>
      98:	0c 94 ba 32 	jmp	0x6574	; 0x6574 <__bad_interrupt>
      9c:	0c 94 ba 32 	jmp	0x6574	; 0x6574 <__bad_interrupt>
      a0:	0c 94 ba 32 	jmp	0x6574	; 0x6574 <__bad_interrupt>
      a4:	0c 94 ba 32 	jmp	0x6574	; 0x6574 <__bad_interrupt>
      a8:	0c 94 ba 32 	jmp	0x6574	; 0x6574 <__bad_interrupt>
      ac:	0c 94 ba 32 	jmp	0x6574	; 0x6574 <__bad_interrupt>
      b0:	0c 94 ba 32 	jmp	0x6574	; 0x6574 <__bad_interrupt>
      b4:	0c 94 ba 32 	jmp	0x6574	; 0x6574 <__bad_interrupt>
      b8:	0c 94 ba 32 	jmp	0x6574	; 0x6574 <__bad_interrupt>
      bc:	0c 94 ba 32 	jmp	0x6574	; 0x6574 <__bad_interrupt>
      c0:	0c 94 ba 32 	jmp	0x6574	; 0x6574 <__bad_interrupt>
      c4:	0c 94 ba 32 	jmp	0x6574	; 0x6574 <__bad_interrupt>
      c8:	0c 94 ba 32 	jmp	0x6574	; 0x6574 <__bad_interrupt>
      cc:	0c 94 ba 32 	jmp	0x6574	; 0x6574 <__bad_interrupt>
      d0:	0c 94 ba 32 	jmp	0x6574	; 0x6574 <__bad_interrupt>
      d4:	0c 94 ba 32 	jmp	0x6574	; 0x6574 <__bad_interrupt>
      d8:	0c 94 ba 32 	jmp	0x6574	; 0x6574 <__bad_interrupt>
      dc:	0c 94 ba 32 	jmp	0x6574	; 0x6574 <__bad_interrupt>
      e0:	0c 94 ba 32 	jmp	0x6574	; 0x6574 <__bad_interrupt>
      e4:	0c 94 ba 32 	jmp	0x6574	; 0x6574 <__bad_interrupt>
      e8:	0c 94 ba 32 	jmp	0x6574	; 0x6574 <__bad_interrupt>
      ec:	0c 94 ba 32 	jmp	0x6574	; 0x6574 <__bad_interrupt>
      f0:	0c 94 ba 32 	jmp	0x6574	; 0x6574 <__bad_interrupt>
      f4:	0c 94 ba 32 	jmp	0x6574	; 0x6574 <__bad_interrupt>
      f8:	0c 94 ba 32 	jmp	0x6574	; 0x6574 <__bad_interrupt>
      fc:	0c 94 ba 32 	jmp	0x6574	; 0x6574 <__bad_interrupt>
     100:	0c 94 ba 32 	jmp	0x6574	; 0x6574 <__bad_interrupt>
     104:	0c 94 ba 32 	jmp	0x6574	; 0x6574 <__bad_interrupt>
     108:	0c 94 ba 32 	jmp	0x6574	; 0x6574 <__bad_interrupt>
     10c:	0c 94 ba 32 	jmp	0x6574	; 0x6574 <__bad_interrupt>
     110:	0c 94 ba 32 	jmp	0x6574	; 0x6574 <__bad_interrupt>
     114:	0c 94 ba 32 	jmp	0x6574	; 0x6574 <__bad_interrupt>
     118:	0c 94 ba 32 	jmp	0x6574	; 0x6574 <__bad_interrupt>
     11c:	0c 94 ba 32 	jmp	0x6574	; 0x6574 <__bad_interrupt>
     120:	0c 94 ba 32 	jmp	0x6574	; 0x6574 <__bad_interrupt>
     124:	0c 94 ba 32 	jmp	0x6574	; 0x6574 <__bad_interrupt>
     128:	0c 94 ba 32 	jmp	0x6574	; 0x6574 <__bad_interrupt>
     12c:	0c 94 ba 32 	jmp	0x6574	; 0x6574 <__bad_interrupt>
     130:	0c 94 ba 32 	jmp	0x6574	; 0x6574 <__bad_interrupt>
     134:	0c 94 ba 32 	jmp	0x6574	; 0x6574 <__bad_interrupt>
     138:	0c 94 ba 32 	jmp	0x6574	; 0x6574 <__bad_interrupt>
     13c:	0c 94 ba 32 	jmp	0x6574	; 0x6574 <__bad_interrupt>
     140:	0c 94 ba 32 	jmp	0x6574	; 0x6574 <__bad_interrupt>
     144:	0c 94 ba 32 	jmp	0x6574	; 0x6574 <__bad_interrupt>
     148:	0c 94 ba 32 	jmp	0x6574	; 0x6574 <__bad_interrupt>
     14c:	0c 94 ba 32 	jmp	0x6574	; 0x6574 <__bad_interrupt>
     150:	0c 94 ba 32 	jmp	0x6574	; 0x6574 <__bad_interrupt>
     154:	0c 94 ba 32 	jmp	0x6574	; 0x6574 <__bad_interrupt>
     158:	0c 94 ba 32 	jmp	0x6574	; 0x6574 <__bad_interrupt>
     15c:	0c 94 ba 32 	jmp	0x6574	; 0x6574 <__bad_interrupt>
     160:	0c 94 ba 32 	jmp	0x6574	; 0x6574 <__bad_interrupt>
     164:	0c 94 ba 32 	jmp	0x6574	; 0x6574 <__bad_interrupt>
     168:	0c 94 ba 32 	jmp	0x6574	; 0x6574 <__bad_interrupt>
     16c:	0c 94 ba 32 	jmp	0x6574	; 0x6574 <__bad_interrupt>
     170:	0c 94 ba 32 	jmp	0x6574	; 0x6574 <__bad_interrupt>
     174:	0c 94 ba 32 	jmp	0x6574	; 0x6574 <__bad_interrupt>
     178:	0c 94 ba 32 	jmp	0x6574	; 0x6574 <__bad_interrupt>
     17c:	0c 94 ba 32 	jmp	0x6574	; 0x6574 <__bad_interrupt>
     180:	0c 94 ba 32 	jmp	0x6574	; 0x6574 <__bad_interrupt>
     184:	0c 94 ba 32 	jmp	0x6574	; 0x6574 <__bad_interrupt>
     188:	0c 94 ba 32 	jmp	0x6574	; 0x6574 <__bad_interrupt>
     18c:	0c 94 ba 32 	jmp	0x6574	; 0x6574 <__bad_interrupt>
     190:	0c 94 ba 32 	jmp	0x6574	; 0x6574 <__bad_interrupt>
     194:	0c 94 ba 32 	jmp	0x6574	; 0x6574 <__bad_interrupt>
     198:	0c 94 ba 32 	jmp	0x6574	; 0x6574 <__bad_interrupt>
     19c:	0c 94 ba 32 	jmp	0x6574	; 0x6574 <__bad_interrupt>
     1a0:	0c 94 ba 32 	jmp	0x6574	; 0x6574 <__bad_interrupt>
     1a4:	0c 94 ba 32 	jmp	0x6574	; 0x6574 <__bad_interrupt>
     1a8:	0c 94 ba 32 	jmp	0x6574	; 0x6574 <__bad_interrupt>
     1ac:	0c 94 ba 32 	jmp	0x6574	; 0x6574 <__bad_interrupt>
     1b0:	0c 94 bc 32 	jmp	0x6578	; 0x6578 <__vector_108>
     1b4:	0c 94 ba 32 	jmp	0x6574	; 0x6574 <__bad_interrupt>
     1b8:	0c 94 ba 32 	jmp	0x6574	; 0x6574 <__bad_interrupt>
     1bc:	0c 94 ba 32 	jmp	0x6574	; 0x6574 <__bad_interrupt>
     1c0:	0c 94 ba 32 	jmp	0x6574	; 0x6574 <__bad_interrupt>
     1c4:	0c 94 ba 32 	jmp	0x6574	; 0x6574 <__bad_interrupt>
     1c8:	0c 94 ba 32 	jmp	0x6574	; 0x6574 <__bad_interrupt>
     1cc:	0c 94 ba 32 	jmp	0x6574	; 0x6574 <__bad_interrupt>
     1d0:	0c 94 ba 32 	jmp	0x6574	; 0x6574 <__bad_interrupt>
     1d4:	0c 94 ba 32 	jmp	0x6574	; 0x6574 <__bad_interrupt>
     1d8:	0c 94 ba 32 	jmp	0x6574	; 0x6574 <__bad_interrupt>
     1dc:	0c 94 ba 32 	jmp	0x6574	; 0x6574 <__bad_interrupt>
     1e0:	0c 94 ba 32 	jmp	0x6574	; 0x6574 <__bad_interrupt>
     1e4:	0c 94 ba 32 	jmp	0x6574	; 0x6574 <__bad_interrupt>
     1e8:	0c 94 ba 32 	jmp	0x6574	; 0x6574 <__bad_interrupt>
     1ec:	0c 94 ba 32 	jmp	0x6574	; 0x6574 <__bad_interrupt>
     1f0:	0c 94 ba 32 	jmp	0x6574	; 0x6574 <__bad_interrupt>
     1f4:	0c 94 ba 32 	jmp	0x6574	; 0x6574 <__bad_interrupt>
     1f8:	0c 94 ba 32 	jmp	0x6574	; 0x6574 <__bad_interrupt>

000001fc <kraid_song>:
     1fc:	87 8c 8b 8d 8d 8c 90 8e 8e 90 90 90 8b 80 82 85     ................
     20c:	85 84 86 87 86 89 89 88 90 9a 99 99 9b 98 9a 9a     ................
     21c:	97 98 95 97 8e 82 81 7f 7e 7e 7c 7b 7b 7a 79 78     ........~~|{{zyx
     22c:	7a 84 87 83 82 81 81 7f 7e 7e 7b 7d 7b 6d 6b 6b     z.......~~{}{mkk
     23c:	6a 6b 6b 68 6b 6a 69 69 6a 73 7a 77 76 76 77 74     jkkhkjiijszwvvwt
     24c:	75 75 75 76 77 70 6a 6c 70 71 71 75 76 76 79 7a     uuuvwpjlpqquvvyz
     25c:	78 85 8e 8a 8e 8c 8d 8e 8f 8d 90 8e 90 89 81 82     x...............
     26c:	84 85 84 85 87 87 87 8b 86 8f 9b 97 9a 99 99 99     ................
     27c:	9a 98 98 95 97 8f 82 82 7f 7e 7e 7d 7b 7b 7a 78     .........~~}{{zx
     28c:	78 7a 84 87 83 83 82 81 7e 80 7e 7c 7c 7b 6c 6b     xz......~.~||{lk
     29c:	6d 69 6c 6c 69 6b 6b 6a 6b 6a 75 7a 77 77 76 77     millikkjkjuzwwvw
     2ac:	74 75 75 76 75 78 6f 69 6e 6f 71 71 75 75 76 78     tuuvuxoinoqquuvx
     2bc:	7b 79 85 8d 8c 8d 8e 8c 8f 8f 8e 90 90 91 8a 82     {y..............
     2cc:	82 84 85 84 86 87 87 87 8b 88 8e 9b 97 99 9a 98     ................
     2dc:	98 9a 97 98 95 96 90 81 82 80 7e 7e 7e 7b 7d 7a     ..........~~~{}z
     2ec:	7a 79 7b 85 86 84 81 81 82 7e 7f 7e 7c 7d 7c 6c     zy{......~.~|}|l
     2fc:	6b 6c 6a 6b 6b 6a 6b 6c 69 6a 6a 75 79 78 76 76     kljkkjklijjuyxvv
     30c:	77 74 75 76 76 76 78 6f 6b 6c 6f 71 72 74 75 76     wtuvvvxokloqrtuv
     31c:	78 7b 78 85 8e 8a 8d 8c 8c 8d 8f 8d 90 90 8f 8a     x{x.............
     32c:	80 82 83 85 84 86 87 87 88 89 87 8e 9b 97 99 99     ................
     33c:	98 99 99 98 97 96 95 91 82 82 80 7e 7f 7d 7c 7c     ...........~.}||
     34c:	7b 79 79 7c 85 87 85 83 82 81 7f 7e 7f 7b 7c 7b     {yy|.......~.{|{
     35c:	6d 6a 6d 6a 6a 6c 69 6b 6a 6a 6a 6b 75 79 79 77     mjmjjlikjjjkuyyw
     36c:	75 77 74 75 76 75 76 77 6f 6a 6d 6e 71 72 73 76     uwtuvuvwojmnqrsv
     37c:	76 78 7b 78 85 8d 8b 8d 8d 8c 8d 90 8e 8f 90 8f     vx{x............
     38c:	89 80 82 82 86 84 86 87 87 86 8b 87 8e 9b 98 99     ................
     39c:	99 98 97 9a 98 97 96 97 90 82 82 81 7e 7e 7f 7b     ............~~.{
     3ac:	7c 7b 79 79 7a 85 87 84 83 81 81 7f 7e 7f 7b 7c     |{yyz.......~.{|
     3bc:	7a 6d 6a 6d 6a 6b 6b 6b 69 6b 69 6a 6a 75 79 77     zmjmjkkkikijjuyw
     3cc:	77 76 76 75 73 76 74 76 77 6d 6b 6c 6e 71 72 73     wvvusvtvwmklnqrs
     3dc:	76 75 78 7a 79 84 8e 8c 8c 8f 8c 8e 8f 8f 90 8f     vuxzy...........
     3ec:	91 88 81 83 83 86 85 85 88 86 87 89 88 8f 9a 99     ................
     3fc:	98 9a 98 98 9a 98 98 95 97 90 82 81 81 7f 7e 7f     ..............~.
     40c:	7b 7c 7c 79 78 7b 86 85 86 82 82 81 80 7f 7e 7d     {||yx{........~}
     41c:	7c 7a 6e 6a 6b 6a 6a 6c 6b 6a 6c 6b 6a 6b 76 79     |znjkjjlkjlkjkvy
     42c:	79 78 75 77 75 75 75 74 76 77 6d 6b 6b 6e 70 71     yxuwuuutvwmkknpq
     43c:	72 76 75 77 7a 79 84 8d 8b 8c 8d 8d 8d 8f 8d 8f     rvuwzy..........
     44c:	8f 91 88 82 83 83 85 84 85 87 87 86 8a 87 8e 9a     ................
     45c:	99 97 9a 98 98 98 99 98 95 97 91 83 82 82 7f 7f     ................
     46c:	7f 7c 7c 7b 7b 78 7c 85 86 84 84 80 82 7f 7e 7e     .||{{x|.......~~
     47c:	7c 7c 7b 6d 6a 6d 6b 6b 6c 6a 6a 6b 6a 69 6a 75     ||{mjmkkljjkjiju
     48c:	79 77 78 76 76 76 73 76 75 76 76 6d 6b 6c 6d 71     ywxvvvsvuvvmklmq
     49c:	71 73 75 76 76 7a 7a 83 8d 8a 8c 8d 8d 8d 8e 8f     qsuvvzz.........
     4ac:	8e 8f 91 87 81 82 83 84 86 84 88 87 87 89 89 8f     ................
     4bc:	9a 99 97 9a 99 97 99 98 98 96 97 90 83 82 81 80     ................
     4cc:	7e 7f 7d 7c 7b 7b 78 7c 87 85 86 83 82 83 7f 7f     ~.}|{{x|........
     4dc:	7f 7c 7c 7b 6e 6b 6d 6a 6b 6b 6b 6b 6b 6c 69 6c     .||{nkmjkkkkklil
     4ec:	76 78 78 79 75 77 77 73 75 74 76 76 6c 6a 6c 6d     vxxyuwwsutvvljlm
     4fc:	70 71 73 75 76 76 7a 79 83 8d 8b 8b 8e 8c 8d 8e     pqsuvvzy........
     50c:	8e 8e 90 90 88 81 82 82 84 86 84 87 87 86 89 87     ................
     51c:	8e 99 99 97 9a 98 98 98 99 97 97 96 91 83 82 82     ................
     52c:	80 7e 80 7d 7c 7b 7c 78 7d 86 85 86 84 82 81 81     .~.}|{|x}.......
     53c:	7e 7f 7e 7b 7b 6d 6a 6c 6b 6a 6b 6c 69 6b 6b 6a     ~.~{{mjlkjklikkj
     54c:	6b 77 79 77 79 75 77 76 74 74 75 75 76 6c 6a 6c     kwywyuwvttuuvljl
     55c:	6d 70 72 72 76 75 77 79 78 84 8c 8b 8c 8c 8d 8d     mprrvuwyx.......
     56c:	8f 8f 8d 8f 90 88 80 82 82 84 84 84 86 88 86 89     ................
     57c:	87 8e 99 98 98 98 99 98 98 99 97 97 97 91 83 82     ................
     58c:	82 80 7e 7f 7c 7c 7b 7b 78 7d 87 86 85 85 82 82     ..~.||{{x}......
     59c:	82 7e 7f 7d 7d 7a 6f 6a 6d 6b 6b 6b 6c 6a 6c 6c     .~.}}zojmkkkljll
     5ac:	69 6c 77 79 78 78 76 76 77 74 75 74 76 75 6b 69     ilwyxxvvwtutvuki
     5bc:	6c 6d 70 72 72 75 76 75 7a 79 84 8d 8b 8b 8c 8e     lmprruvuzy......
     5cc:	8d 8e 8e 8e 8e 91 86 80 83 81 84 84 84 85 88 86     ................
     5dc:	87 88 8e 9a 99 97 99 99 98 98 99 98 97 98 90 84     ................
     5ec:	81 82 80 7f 7f 7d 7c 7b 7c 79 7d 88 86 85 86 81     .....}|{|y}.....
     5fc:	82 81 7f 80 7d 7d 7a 6e 6b 6c 6c 6a 6b 6b 6b 69     ....}}znklljkkki
     60c:	6c 69 6a 78 79 77 78 76 75 77 74 75 75 75 77 6a     lijxywxvuwtuuuwj
     61c:	68 6d 6c 6f 72 71 75 75 76 78 79 84 8c 8b 8a 8c     hmlorquuvxy.....
     62c:	8e 8c 8d 8f 8e 8e 91 87 80 84 82 84 86 84 86 88     ................
     63c:	86 89 88 8f 9a 98 98 98 99 98 97 99 97 97 97 90     ................
     64c:	84 81 82 80 7f 7e 7f 7b 7c 7d 78 7d 89 85 85 85     .....~.{|}x}....
     65c:	82 81 82 7e 7e 7e 7c 7a 6e 6b 6c 6b 6b 6a 6b 6b     ...~~~|znklkkjkk
     66c:	69 6d 69 6b 78 7a 77 79 77 76 77 74 75 75 74 76     imikxzwywvwtuutv
     67c:	6a 69 6d 6b 6f 71 71 73 76 76 78 7a 83 8c 8b 8b     jimkoqqsvvxz....
     68c:	8c 8d 8d 8e 8e 8e 8d 91 86 7f 84 81 83 86 85 85     ................
     69c:	87 87 88 89 8f 99 99 99 98 9a 99 98 9a 99 96 98     ................
     6ac:	90 85 81 82 80 7f 7e 7f 7c 7c 7d 79 7d 88 87 86     ......~.||}y}...
     6bc:	86 81 82 82 7f 7e 7f 7b 79 6d 6a 6a 6c 6a 6a 6b     .....~.{ymjjljjk
     6cc:	69 6a 6c 69 6b 77 7a 77 79 75 76 76 75 74 74 74     ijlikwzwyuvvuttt
     6dc:	76 6b 68 6c 6c 6f 70 71 73 76 75 77 78 83 8a 8c     vkhllopqsvuwx...
     6ec:	8b 8c 93 91 92 93 92 92 95 8b 81 86 85 85 83 82     ................
     6fc:	84 85 85 86 86 8e 96 98 96 97 9c 9d 9c 9c 9c 9a     ................
     70c:	9c 94 88 85 85 83 7e 7b 7d 79 7a 7a 76 7a 87 84     ......~{}yzzvz..
     71c:	84 83 85 84 85 82 81 80 81 7c 71 6d 6e 6f 69 68     .........|qmnoih
     72c:	69 68 67 6a 67 68 75 78 75 77 77 7a 78 78 76 77     ihgjghuxuwwzxxvw
     73c:	77 77 6d 69 6f 6e 6e 6d 6f 70 73 73 75 76 81 89     wwmionnmopssuv..
     74c:	88 89 8b 90 90 8f 92 91 90 94 89 82 85 85 84 83     ................
     75c:	82 83 85 85 85 86 8d 97 96 97 97 9c 9c 9a 9b 9c     ................
     76c:	9a 9a 93 87 85 85 84 7e 7a 7d 7a 79 7b 76 7b 86     .......~z}zy{v{.
     77c:	85 82 83 84 85 84 83 81 81 80 7c 70 6e 6d 6f 69     ..........|pnmoi
     78c:	67 69 68 67 6a 67 68 76 77 74 75 77 79 78 78 76     gihgjghvwtuwyxxv
     79c:	77 76 78 6d 68 6f 6e 6d 6e 6e 70 72 74 74 77 82     wvxmhonmnnprttw.
     7ac:	89 89 89 8a 90 91 8f 92 92 8f 93 89 80 85 85 83     ................
     7bc:	82 81 83 85 84 86 85 8e 97 96 97 96 9c 9c 9a 9b     ................
     7cc:	9c 99 9a 92 88 85 84 83 7d 7b 7d 7a 79 7a 77 7b     ........}{}zyzw{
     7dc:	87 85 82 83 86 85 85 84 81 81 81 7c 70 6f 6e 6e     ...........|ponn
     7ec:	6b 67 69 68 68 68 68 69 76 78 74 76 77 79 78 78     kgihhhhivxtvwyxx
     7fc:	76 77 77 78 6c 69 6d 6e 6c 6c 6e 6e 72 72 74 76     vwwxlimnllnnrrtv
     80c:	80 88 89 89 8b 91 90 8e 91 90 8f 93 88 80 83 85     ................
     81c:	81 81 81 82 83 85 84 86 8d 97 96 97 96 9c 9c 9b     ................
     82c:	9b 9c 9a 9a 94 87 86 84 84 7d 7c 7d 7b 78 7b 77     .........}|}{x{w
     83c:	7a 88 86 84 84 87 85 85 83 82 80 82 7b 71 6e 6d     z...........{qnm
     84c:	6e 6a 67 68 6a 66 69 68 68 75 79 76 76 79 7a 7a     njghjfihhuyvvyzz
     85c:	79 77 77 77 78 6c 68 6d 6e 6c 6d 6e 70 73 73 74     ywwwxlhmnlmnpsst
     86c:	76 83 88 89 8a 89 90 90 8e 90 92 8f 92 8a 81 85     v...............
     87c:	86 84 81 82 83 84 85 84 85 8e 96 97 96 97 9b 9c     ................
     88c:	99 9b 9c 99 9b 92 88 86 85 84 80 7b 7e 7c 79 7b     ...........{~|y{
     89c:	78 7a 88 85 82 84 85 84 85 83 82 80 81 7b 70 6d     xz...........{pm
     8ac:	6e 6e 6a 67 68 69 66 69 68 69 75 79 74 76 78 7a     nnjghifihiuytvxz
     8bc:	79 79 77 77 76 78 6c 69 6e 70 6c 6d 6e 70 71 74     yywwvxlinplmnpqt
     8cc:	73 77 82 87 89 88 89 90 8f 8f 8f 91 8f 92 89 81     sw..............
     8dc:	84 86 84 80 83 82 84 85 86 85 8f 97 96 96 97 9a     ................
     8ec:	9c 9a 9a 9b 99 9a 91 88 87 84 84 7f 7a 7c 7c 79     ............z||y
     8fc:	7b 77 7b 86 86 82 84 85 86 84 84 81 81 81 7a 70     {w{...........zp
     90c:	6e 6e 6e 6c 66 68 69 68 69 69 6b 75 7a 75 75 78     nnnlfhihiikuzuux
     91c:	7a 79 79 77 75 77 76 6c 67 6d 6e 6d 6d 6e 6f 71     zyywuwvlgmnmmnoq
     92c:	74 73 77 83 87 88 89 8a 8e 91 8e 90 90 8f 91 89     tsw.............
     93c:	81 83 86 84 82 82 83 85 85 86 84 90 96 96 98 96     ................
     94c:	9a 9d 9b 99 9c 99 9b 91 88 87 85 83 80 7c 7c 7d     .............||}
     95c:	79 7b 78 7d 86 86 84 82 86 86 84 84 82 81 81 7c     y{x}...........|
     96c:	6f 6f 6f 6d 6c 69 68 6a 68 68 69 69 75 78 76 74     ooomlihjhhiiuxvt
     97c:	79 79 78 78 78 76 76 77 6c 69 6d 6e 6c 6b 70 72     yyxxxvvwlimnlkpr
     98c:	73 77 78 79 87 8d 8d 90 94 98 98 99 9c 9c 9d 9e     swxy............
     99c:	96 8f 91 8f 8c 86 83 82 7e 7e 7c 7a 7f 86 82 81     ........~~|z....
     9ac:	7f 81 7f 7c 7d 7a 78 77 70 65 64 65 67 66 69 6c     ...|}zxwpedegfil
     9bc:	6d 6f 73 73 7c 88 8c 8e 90 95 98 99 9a 9c 9b 9f     moss|...........
     9cc:	9c 91 90 90 8d 88 83 83 7f 7e 7c 7a 7b 83 85 82     .........~|z{...
     9dc:	7f 80 7f 7d 7a 7a 78 76 74 66 62 63 66 66 68 6a     ...}zzxvtfbcffhj
     9ec:	6e 6f 73 74 76 85 8c 8d 8d 91 95 97 97 99 99 9a     nostv...........
     9fc:	9b 93 8c 8d 8d 89 84 80 7f 7c 7c 7a 75 7d 83 81     .........||zu}..
     a0c:	7e 7e 80 7d 7d 7a 79 76 78 6e 63 63 65 66 67 68     ~~.}}zyvxnccefgh
     a1c:	6c 6d 71 75 75 7d 8a 8c 8c 8f 94 96 97 98 9a 9a     lmquu}..........
     a2c:	9d 99 8f 8f 8e 8d 86 82 80 7e 7c 7a 78 78 83 82     .........~|zxx..
     a3c:	80 7e 7e 80 7d 7c 7a 78 76 75 66 62 63 66 66 67     .~~.}|zxvufbcffg
     a4c:	69 6d 6e 73 74 77 84 8c 8b 8e 90 96 97 96 99 98     imnstw..........
     a5c:	9a 9c 93 8c 8f 8d 89 82 81 7e 7d 7a 7a 75 7e 84     .........~}zzu~.
     a6c:	81 7f 7d 80 7e 7d 7b 7a 76 78 6e 63 64 65 68 66     ..}.~}{zvxncdehf
     a7c:	68 6b 6e 70 75 74 7d 8a 8b 8d 8d 94 96 96 98 98     hknput}.........
     a8c:	99 9b 99 8e 8d 8e 8c 85 82 7f 7d 7d 7b 78 78 82     ..........}}{xx.
     a9c:	83 7f 7f 7f 80 7d 7b 7a 77 78 75 68 64 64 66 66     .....}{zwxuhddff
     aac:	67 6a 6d 6f 74 75 76 85 8c 8b 8e 91 96 96 98 98     gjmotuv.........
     abc:	99 9a 9b 92 8c 8e 8d 88 83 80 7f 7c 7c 79 76 7d     ...........||yv}
     acc:	85 80 7f 7d 80 7e 7d 7a 79 76 78 6e 63 63 65 66     ...}.~}zyvxnccef
     adc:	66 68 6a 6e 70 75 75 7c 8b 8c 8d 8e 94 96 97 97     fhjnpuu|........
     aec:	99 99 9c 97 8c 8d 8d 8c 84 81 7f 7e 7c 7a 78 78     ...........~|zxx
     afc:	83 83 7f 7c 7e 7f 7d 7b 78 77 76 74 66 61 64 66     ...|~.}{xwvtfadf
     b0c:	67 67 6a 6d 71 74 76 78 87 8d 8e 8f 92 96 98 97     ggjmqtvx........
     b1c:	98 98 9a 9b 91 8d 8e 8d 89 83 80 7f 7d 7c 79 76     ............}|yv
     b2c:	7d 85 80 7f 7e 7f 7e 7b 7a 78 75 77 6d 62 62 64     }...~.~{zxuwmbbd
     b3c:	65 66 67 6c 6f 71 74 75 7e 8a 8c 8c 8f 94 96 95     efgloqtu~.......
     b4c:	98 98 99 9c 97 8e 8e 8f 8b 86 81 81 7e 7c 7a 78     ............~|zx
     b5c:	79 82 83 7f 7f 7f 80 7c 7c 7b 77 77 73 67 62 65     y......||{wwsgbe
     b6c:	65 67 67 6b 6d 70 72 76 77 84 8c 8b 8e 91 95 96     eggkmprvw.......
     b7c:	96 99 98 98 9c 91 8e 8f 8c 89 83 80 80 7c 7c 7a     .............||z
     b8c:	77 7e 85 81 81 7f 81 7e 7d 7a 79 76 77 6e 62 64     w~.....~}zyvwnbd
     b9c:	65 67 66 69 6c 6f 70 74 75 7d 8b 8a 8d 8f 94 96     egfiloptu}......
     bac:	97 98 9a 99 9c 99 8e 8d 8e 8b 86 80 80 7e 7c 7a     .............~|z
     bbc:	78 78 83 82 80 7e 7e 81 7e 7c 7b 78 76 75 67 63     xx...~~.~|{xvugc
     bcc:	64 67 66 66 69 6c 6f 72 75 77 85 8c 8b 8e 90 96     dgffiloruw......
     bdc:	97 97 99 98 9a 9a 92 8c 8e 8c 89 81 80 7e 7c 7b     .............~|{
     bec:	7a 76 7e 83 81 7e 7d 81 7f 7e 7c 7a 77 78 6d 63     zv~..~}..~|zwxmc
     bfc:	63 65 66 66 67 6c 6e 71 74 75 7e 8a 8c 8d 90 93     ceffglnqtu~.....
     c0c:	97 97 99 99 99 9c 98 8e 8f 8e 8d 85 82 7f 7e 7a     ..............~z
     c1c:	7b 77 78 83 82 7f 7e 7f 7f 7d 7b 79 78 76 74 66     {wx...~..}{yxvtf
     c2c:	62 65 66 67 67 6b 6e 6f 74 75 79 85 8d 8d 8e 91     befggknotuy.....
     c3c:	96 96 98 98 99 98 9b 91 8d 8e 8d 8a 82 81 7f 7c     ...............|
     c4c:	7b 79 76 7c 83 7f 7f 7e 81 7e 7d 7c 78 77 75 6d     {yv|...~.~}|xwum
     c5c:	62 64 65 66 66 68 6c 6e 72 75 77 7f 8c 8c 8e 91     bdeffhlnruw.....
     c6c:	95 97 97 98 9a 98 9c 97 8e 90 8f 8b 86 83 80 7f     ................
     c7c:	7b 7b 78 78 83 82 7f 7f 7f 80 7c 7c 7b 77 77 73     {{xx......||{wws
     c8c:	66 62 64 66 65 67 6a 6e 6f 73 75 77 86 8b 8c 8e     fbdfegjnosuw....
     c9c:	92 95 97 97 98 99 99 9c 91 8d 8f 8d 8a 83 82 7f     ................
     cac:	7d 7a 7a 77 7e 84 81 7e 7e 7f 7e 7b 7a 79 76 77     }zzw~..~~.~{zyvw
     cbc:	6c 63 64 65 67 67 68 6d 6e 71 73 75 7e 8a 8c 8c     lcdegghmnqsu~...
     ccc:	8f 93 96 96 98 99 9a 9c 98 8e 8f 8e 8b 86 81 81     ................
     cdc:	7e 7c 7b 78 79 83 83 7f 7e 7e 80 7c 7b 79 78 76     ~|{xy...~~.|{yxv
     cec:	74 65 62 64 66 66 67 6a 6e 70 72 75 77 86 8b 8c     tebdffgjnpruw...
     cfc:	8d 92 95 97 96 99 98 9a 9b 92 8d 8e 8d 8a 83 81     ................
     d0c:	7f 7e 7b 7b 76 7f 83 81 7e 7e 7f 7f 7b 7b 78 77     .~{{v...~~..{{xw
     d1c:	77 6c 63 63 66 67 67 68 6d 6f 71 73 75 7d 8b 8b     wlccfgghmoqsu}..
     d2c:	8d 8e 93 97 96 98 99 9a 9c 98 8e 8e 8f 8c 86 81     ................
     d3c:	81 7e 7b 7b 77 7a 83 82 80 7e 7e 80 7c 7b 7a 76     .~{{wz...~~.|{zv
     d4c:	76 73 65 62 63 66 66 67 6b 6e 6e 73 74 78 86 8b     vsebcffgknnstx..
     d5c:	8c 8d 90 96 96 97 98 9a 9a 9d 91 8e 8e 8e 89 82     ................
     d6c:	81 7e 7d 7b 79 77 7e 84 80 7e 7f 7f 7f 7c 7b 78     .~}{yw~..~...|{x
     d7c:	77 77 6c 63 64 65 66 66 68 6c 6e 72 74 75 7d 8b     wwlcdeffhlnrtu}.
     d8c:	8b 8d 8f 94 97 97 98 9a 99 9c 97 8e 8f 8f 8c 85     ................
     d9c:	82 80 7e 7b 7a 77 78 83 81 80 7d 7f 7e 7d 7a 7a     ..~{zwx...}.~}zz
     dac:	77 77 74 65 62 63 66 67 66 6b 6c 70 72 75 77 87     wwtebcfgfklpruw.
     dbc:	8d 8c 8f 92 95 97 97 99 99 99 9c 91 8d 8e 8c 89     ................
     dcc:	83 81 7f 7c 7c 7a 76 7f 84 81 7e 7f 80 7e 7d 7b     ...||zv...~..~}{
     ddc:	79 77 76 6d 61 64 64 66 65 68 6a 6e 6f 73 73 7e     ywvmaddfehjnoss~
     dec:	8b 8b 8d 8f 95 96 98 99 99 9a 9b 98 8e 8e 8f 8c     ................
     dfc:	87 83 81 7e 7d 7b 78 79 84 82 81 7e 80 7f 7e 7c     ...~}{xy...~..~|
     e0c:	79 78 76 74 65 63 63 65 67 66 6a 6d 6f 73 75 77     yxvteccegfjmosuw
     e1c:	86 8b 8c 8d 92 95 97 98 98 9a 9a 9d 91 8d 8f 8d     ................
     e2c:	8a 83 81 80 7e 7c 7a 76 80 84 81 7e 7e 81 7e 7b     ....~|zv...~~.~{
     e3c:	7b 79 75 77 6b 63 64 65 66 67 68 6d 6f 71 75 75     {yuwkcdefghmoquu
     e4c:	80 8a 8c 8c 8f 93 96 97 97 9a 99 9c 96 8d 8e 8f     ................
     e5c:	8b 86 81 81 7f 7b 7b 77 7a 83 83 7f 7e 80 80 7c     .....{{wz...~..|
     e6c:	7b 7a 77 77 73 64 63 64 67 66 67 6b 6d 70 72 75     {zwwsdcdgfgkmpru
     e7c:	79 87 8b 8c 8d 92 95 97 96 99 99 9a 9b 91 8d 8f     y...............
     e8c:	8c 89 82 81 80 7e 7c 7a 76 80 84 81 7e 7e 80 7d     .....~|zv...~~.}
     e9c:	7c 7a 78 77 75 6c 61 64 64 67 65 69 6b 6f 71 75     |zxwuladdgeikoqu
     eac:	74 7f 8b 8b 8c 8f 93 96 97 98 99 98 9c 97 8c 8f     t...............
     ebc:	8d 8c 84 82 81 7e 7b 7b 77 7a 84 82 80 7e 7e 80     .....~{{wz...~~.
     ecc:	7c 7b 79 78 76 73 65 63 64 66 67 68 6b 6d 70 73     |{yxvsecdfghkmps
     edc:	76 78 87 8b 8c 8d 92 95 97 98 99 98 9b 9b 91 8c     vx..............
     eec:	8f 8c 89 82 81 7f 7c 7b 79 77 7f 83 81 7e 7e 80     ......|{yw...~~.
     efc:	7d 7c 7b 78 77 76 6c 63 64 64 67 65 69 6b 6f 71     }|{xwvlcddgeikoq
     f0c:	74 76 7f 8b 8b 8d 8f 94 96 96 98 98 99 9b 96 8e     tv..............
     f1c:	8e 8f 8b 85 83 80 7e 7c 7b 77 7a 83 83 7f 7e 80     ......~|{wz...~.
     f2c:	7f 7d 7c 7a 77 76 73 66 62 65 65 66 66 6a 6d 6f     .}|zwvsfbeeffjmo
     f3c:	73 74 79 86 8c 8b 8e 91 96 96 98 99 98 9b 9c 90     sty.............
     f4c:	8e 8e 8e 88 83 80 7f 7c 7b 7a 76 80 83 81 7e 7e     .......|{zv...~~
     f5c:	7f 7e 7b 7b 79 75 76 6b 62 63 65 66 66 68 6c 6e     .~{{yuvkbceffhln
     f6c:	71 74 75 7e 8b 8b 8d 8e 95 96 97 97 99 99 9c 97     qtu~............
     f7c:	8e 8e 8e 8b 85 81 80 7d 7c 7b 77 7b 83 83 7f 7e     .......}|{w{...~
     f8c:	80 80 7c 7b 79 77 76 73 66 63 64 67 65 67 6a 6d     ..|{ywvsfcdgegjm
     f9c:	70 72 75 79 86 8c 8b 8e 92 95 97 97 99 9a 9a 9c     pruy............
     fac:	91 8c 8f 8c 89 82 81 7e 7e 7b 7a 77 7f 85 80 7e     .......~~{zw...~
     fbc:	7e 7f 7e 7b 7a 78 75 76 6b 62 63 64 67 66 69 6c     ~.~{zxuvkbcdgfil
     fcc:	6e 71 74 75 80 8b 8c 8c 8f 94 97 96 99 99 99 9c     nqtu............
     fdc:	97 8d 8e 8e 8b 86 81 80 7d 7c 7a 78 79 84 83 7f     ........}|zxy...
     fec:	7d 80 7f 7c 7c 79 78 77 73 66 63 64 67 66 67 6a     }..||yxwsfcdgfgj
     ffc:	6e 70 72 75 78 87 8c 8c 8e 92 96 97 97 9a 99 9b     nprux...........
    100c:	9b 91 8c 8f 8d 89 82 81 7e 7d 7a 78 77 7f 84 7f     ........~}zxw...
    101c:	7f 7f 80 7f 7c 7b 79 77 76 6c 62 65 65 67 65 69     ....|{ywvlbeegei
    102c:	6b 6f 71 75 75 81 8b 8c 8c 8f 94 97 96 98 99 9a     koquu...........
    103c:	9c 97 8c 8f 8e 8a 85 80 80 7e 7c 7a 77 79 84 82     .........~|zwy..
    104c:	7e 7e 7f 80 7d 7a 7a 77 76 73 65 64 64 66 65 67     ~~..}zzwvseddfeg
    105c:	6a 6e 70 73 75 78 86 8c 8b 8e 91 95 97 97 99 99     jnpsux..........
    106c:	9b 9b 92 8d 90 8c 89 82 81 7f 7d 7c 79 77 7f 84     ..........}|yw..
    107c:	80 7f 7f 7f 7e 7b 7b 78 76 77 6c 63 63 65 65 66     ....~{{xvwlcceef
    108c:	68 6d 6e 72 75 75 80 8b 8c 8e 90 94 97 96 98 99     hmnruu..........
    109c:	9a 9b 97 8c 8f 8d 8c 84 82 80 7d 7c 7a 78 7a 83     ..........}|zxz.
    10ac:	82 7f 7d 80 7f 7d 7a 7a 76 77 72 65 62 65 66 67     ..}..}zzvwrebefg
    10bc:	66 6b 6d 70 73 75 78 87 8b 8c 8d 92 95 97 97 99     fkmpsux.........
    10cc:	98 9b 9b 90 8e 8e 8d 89 83 80 7f 7c 7b 79 77 7f     ...........|{yw.
    10dc:	84 80 7f 7e 7f 7e 7c 79 78 75 76 6b 61 64 65 67     ...~.~|yxuvkadeg
    10ec:	67 69 6d 6e 72 74 75 80 8a 8b 8c 90 94 97 97 98     gimnrtu.........
    10fc:	99 99 9d 96 8e 8f 8e 8a 85 81 80 7e 7c 7a 77 7b     ...........~|zw{
    110c:	83 82 7f 7e 7f 7f 7c 7b 7a 76 77 72 64 63 64 66     ...~..|{zvwrdcdf
    111c:	66 67 6a 6e 71 73 75 78 87 8b 8c 8e 92 95 97 97     fgjnqsux........
    112c:	98 98 9b 9b 91 8d 8e 8d 88 83 81 7e 7d 7b 79 77     ...........~}{yw
    113c:	80 84 81 7e 7e 81 7d 7d 7a 78 75 76 6a 62 64 66     ...~~.}}zxuvjbdf
    114c:	66 67 6a 6c 70 71 75 76 80 8b 8c 8c 90 94 97 96     fgjlpquv........
    115c:	97 99 98 9c 96 8c 8f 8d 8b 84 82 80 7e 7d 7b 78     ............~}{x
    116c:	7c 85 81 80 7e 81 7f 7e 7b 7a 77 78 71 65 63 63     |...~..~{zwxqecc
    117c:	66 65 67 6b 6d 71 73 75 7a 88 8b 8c 8d 92 95 97     fegkmqsuz.......
    118c:	96 98 98 9b 99 8f 8b 8e 8c 86 81 7f 7e 7c 7a 79     ............~|zy
    119c:	77 80 85 80 7e 7f 80 7f 7c 7b 79 75 76 6a 62 64     w...~...|{yuvjbd
    11ac:	65 67 66 6a 6d 70 72 76 75 80 8a 8c 8c 90 94 96     egfjmprvu.......
    11bc:	97 97 9a 99 9c 95 8c 8d 8b 8a 85 81 7f 7d 79 7b     .............}y{
    11cc:	79 7b 84 81 80 7e 7f 80 7c 7c 7b 79 78 72 66 64     y{...~..||{yxrfd
    11dc:	65 68 66 67 6b 6f 70 73 74 78 79 7d 7d 7f 91 98     ehfgkopstxy}}...
    11ec:	98 99 9b 9c 9d 9f a0 a1 a0 a0 98 92 8e 8c 7e 75     ..............~u
    11fc:	75 73 71 71 6f 6c 6e 71 6f 6d 6d 6a 6a 66 6f 75     usqqolnqommjjfou
    120c:	73 76 75 74 76 7a 7d 7f 81 83 83 87 88 8c 89 83     svutvz}.........
    121c:	88 88 8a 8b 8c 8f 8f 91 91 8e 8e 86 84 7f 81 8a     ................
    122c:	89 85 83 82 81 7f 7b 7e 7d 7d 7a 79 76 76 73 66     ......{~}}zyvvsf
    123c:	61 65 66 67 67 6a 6d 6f 73 74 78 78 7b 7d 7f 8e     aefggjmostxx{}..
    124c:	98 97 99 9a 9a 9c 9b 9e 9e 9e 9b 97 90 8e 8c 81     ................
    125c:	76 77 74 72 72 70 6e 70 71 70 6e 6d 6c 6b 69 6e     vwtrrpnpqpnmlkin
    126c:	77 75 78 76 76 78 7b 7c 7e 81 82 85 87 88 8b 89     wuxvvx{|~.......
    127c:	84 84 87 88 8b 8b 8d 8e 91 90 8f 8d 85 83 81 7f     ................
    128c:	8a 8b 88 85 83 81 7f 7e 7f 7f 7b 7b 79 77 76 74     .......~..{{ywvt
    129c:	67 61 63 65 64 67 6a 6b 70 71 75 78 7a 7b 80 7f     gacedgjkpquxz{..
    12ac:	8c 9a 99 9a 9b 9a 9d 9e 9e a0 9d 9c 95 91 8c 8d     ................
    12bc:	84 76 76 73 72 71 6f 6e 70 72 6f 6f 6e 6b 6b 69     .vvsrqonproonkki
    12cc:	6a 77 75 77 77 75 79 7a 7d 7f 82 84 84 87 88 8b     jwuwwuyz}.......
    12dc:	8c 86 85 87 89 8a 8b 8d 8f 90 91 8f 8d 85 83 81     ................
    12ec:	7f 87 8a 87 85 83 81 7f 7d 7f 7f 7c 7b 78 78 75     ........}..|{xxu
    12fc:	74 6c 61 64 65 66 66 69 6d 6f 73 76 77 7a 7b 80     tladeffimosvwz{.
    130c:	7f 89 99 99 99 9b 9b 9d 9c 9e 9e 9d 9d 95 91 8d     ................
    131c:	8c 87 78 76 75 73 71 70 6e 70 70 70 6d 6d 6a 6a     ..xvusqpnpppmmjj
    132c:	6a 68 74 77 76 78 75 79 7a 7d 7f 81 84 86 86 89     jhtwvxuyz}......
    133c:	89 8e 89 83 87 88 8a 8b 8c 8f 8f 91 8f 8e 86 83     ................
    134c:	82 7f 85 8c 86 86 84 81 80 7d 7f 7f 7b 7b 77 77     .........}..{{ww
    135c:	74 76 6d 62 63 65 65 66 6a 6d 6f 73 74 78 7a 7c     tvmbceefjmostxz|
    136c:	7e 7f 87 98 98 9a 9b 9c 9c 9e 9f 9f 9d 9c 95 91     ~...............
    137c:	8d 8c 88 79 75 74 72 70 70 6d 6f 71 6f 6f 6c 6c     ...yutrppmoqooll
    138c:	6b 6a 67 72 77 78 79 76 7a 7a 7e 7f 80 84 86 86     kjgrwxyvzz~.....
    139c:	89 8a 8e 8b 83 87 88 8a 8a 8d 8d 90 91 8f 8d 86     ................
    13ac:	84 83 7d 82 8b 87 86 83 80 80 7d 7f 7e 7b 7c 79     ..}.......}.~{|y
    13bc:	77 75 75 6f 63 62 66 64 67 6a 6d 6f 73 75 77 7a     wuuocbfdgjmosuwz
    13cc:	7b 7f 7f 86 95 9a 99 9b 9c 9d 9d 9e 9e 9d 9b 96     {...............
    13dc:	8f 8e 8a 8a 7d 74 75 72 70 70 6d 70 70 70 6e 6c     ....}turppmpppnl
    13ec:	6c 6a 6a 67 6e 77 76 78 76 7a 7b 7d 80 80 84 85     ljjgnwvxvz{}....
    13fc:	87 8a 89 8e 8d 85 87 88 8a 8b 8c 8f 8f 91 8f 8d     ................
    140c:	87 82 82 7e 80 89 88 86 83 82 7f 7e 7f 7f 7b 7b     ...~.......~..{{
    141c:	77 78 75 73 72 64 63 65 65 66 6a 6c 70 72 74 78     wxusrdceefjlprtx
    142c:	7a 7d 7e 81 84 93 9a 99 9c 9b 9d 9e 9d 9f 9d 9d     z}~.............
    143c:	96 90 8f 8a 8b 7e 74 74 72 70 70 6d 70 71 6e 6f     .....~ttrppmpqno
    144c:	6d 6c 6a 6b 66 6c 75 78 77 77 78 7b 7d 80 82 83     mljkfluxwwx{}...
    145c:	86 88 89 89 8e 91 86 86 89 89 8b 8d 8d 90 8f 8f     ................
    146c:	8d 86 83 81 7f 7d 88 88 85 83 80 7e 7d 7f 7f 7c     .....}.....~}..|
    147c:	7a 79 77 76 74 73 68 62 66 65 66 6a 6c 70 72 75     zywvtshbfefjlpru
    148c:	77 7a 7c 7e 81 83 91 9a 99 9c 9b 9d 9d 9e 9f 9e     wz|~............
    149c:	9b 96 8f 8e 8a 8a 81 74 72 72 70 70 6e 6f 70 6e     .......trrppnopn
    14ac:	6f 6c 6c 6a 6a 67 69 74 79 77 77 78 7c 7d 81 81     olljjgitywwx|}..
    14bc:	84 85 87 89 8a 8c 92 87 86 88 8a 8c 8d 8f 8f 90     ................
    14cc:	8f 8d 86 83 82 7f 7d 85 89 85 83 81 7e 7e 7f 7e     ......}.....~~.~
    14dc:	7c 7a 79 76 76 72 74 69 62 66 64 67 69 6d 70 71     |zyvvrtibfdgimpq
    14ec:	75 78 79 7d 7e 80 84 8f 99 9b 9b 9c 9e 9d 9f 9f     uxy}~...........
    14fc:	9e 9c 96 90 8e 8a 89 84 76 73 73 70 70 6c 6f 70     ........vsspplop
    150c:	6f 6f 6d 6b 6a 6a 67 68 73 79 78 77 7a 7b 7e 80     oomkjjghsyxwz{~.
    151c:	83 83 86 87 89 8a 8d 92 8a 84 8a 89 8b 8d 8d 90     ................
    152c:	8f 8f 8c 85 83 80 80 7b 83 8a 84 83 82 7e 7e 80     .......{.....~~.
    153c:	7e 7d 7a 79 77 75 73 74 6c 63 65 65 67 6a 6d 6f     ~}zywustlceegjmo
    154c:	72 75 77 7a 7c 7e 81 84 8c 98 9b 9b 9c 9b 9e 9e     ruwz|~..........
    155c:	a0 9e 9c 97 91 8e 8c 89 87 78 73 73 71 6f 6e 6e     .........xssqonn
    156c:	71 6e 6e 6b 6b 6a 69 69 65 70 78 77 76 79 7b 7e     qnnkkjiiepxwvy{~
    157c:	7f 82 83 86 86 89 8a 8d 93 8d 85 89 89 8c 8c 8e     ................
    158c:	90 90 8f 8c 85 84 81 7f 7c 7f 89 85 84 82 7f 7f     ........|.......
    159c:	7f 7f 7c 7c 79 77 75 73 72 70 63 65 64 66 69 6c     ..||ywusrpcedfil
    15ac:	6f 72 75 77 78 7c 7d 80 85 8a 95 9b 9a 9d 9c 9e     oruwx|}.........
    15bc:	9e 9f 9e 9c 95 90 8d 8b 87 87 7a 72 73 6f 70 6d     ..........zrsopm
    15cc:	6f 70 6e 6e 6c 6c 6a 69 68 66 6e 78 78 77 79 7c     opnnlljihfnxxwy|
    15dc:	7e 80 81 83 86 87 89 8b 8d 94 90 85 88 89 8b 8d     ~...............
    15ec:	8e 90 91 8f 8d 84 84 80 7f 7c 7c 87 86 83 82 7e     .........||....~
    15fc:	7e 80 7e 7d 7a 79 76 76 73 73 70 66 63 65 65 6b     ~.~}zyvvsspfceek
    160c:	6c 70 72 75 77 7a 7c 7e 7f 86 88 94 9c 9a 9d 9b     lpruwz|~........
    161c:	9d 9e a0 9d 9c 95 90 8d 8c 87 88 7d 72 72 6f 70     ...........}rrop
    162c:	6d 6f 70 6f 6d 6d 6c 6a 69 68 66 6a 78 77 76 79     mopommljihfjxwvy
    163c:	7a 7e 7f 82 82 85 86 89 8b 8d 94 93 87 88 89 8b     z~..............
    164c:	8d 8e 90 91 90 8c 86 84 81 7f 7c 7c 85 86 82 81     ..........||....
    165c:	7f 7d 81 7e 7c 7a 79 76 76 74 73 72 69 64 66 66     .}.~|zyvvtsridff
    166c:	6b 6d 6f 73 77 78 7a 7c 7f 7f 87 88 92 9c 9c 9c     kmoswxz|........
    167c:	9d 9e 9f 9f 9d 9c 94 8f 8c 8c 87 88 7f 72 72 70     .............rrp
    168c:	70 6e 6e 71 70 6d 6d 6a 6a 67 69 65 6a 78 78 77     pnnqpmmjjgiejxxw
    169c:	7a 7c 7f 80 83 85 85 89 89 8c 8e 93 94 89 88 8a     z|..............
    16ac:	8b 8c 8e 8e 90 8e 8c 84 83 80 7f 7c 7a 82 87 82     ...........|z...
    16bc:	82 7e 7d 80 7e 7d 7a 7a 77 76 74 72 73 6c 63 65     .~}.~}zzwvtrslce
    16cc:	66 6a 6c 6f 72 74 77 78 7b 7e 7f 87 87 8e 9c 9b     fjlortwx{~......
    16dc:	9d 9d 9e 9e 9f 9d 9d 97 91 8e 8c 89 88 83 74 70     ..............tp
    16ec:	71 6e 6d 6f 70 6e 6d 6b 6b 6a 69 68 66 67 74 7a     qnmopnmkkjihfgtz
    16fc:	76 7b 7b 7f 80 82 84 85 88 88 8b 8e 93 95 8c 87     v{{.............
    170c:	8b 8b 8e 8f 90 8f 8f 8b 86 84 81 7f 7e 79 80 86     ............~y..
    171c:	84 81 80 7e 80 7f 7d 7b 7a 77 76 75 72 73 6e 65     ...~..}{zwvursne
    172c:	65 67 69 6d 6f 72 75 76 79 7c 7d 80 85 89 8b 9a     egimoruvy|}.....
    173c:	9c 9b 9e 9d 9f 9f 9e 9c 95 91 8d 8b 87 87 83 76     ...............v
    174c:	71 70 6f 6e 6f 70 6f 6d 6d 6b 6b 69 68 67 66 73     qponopommkkihgfs
    175c:	79 77 7b 7b 7e 80 82 85 85 88 89 8b 8d 93 96 8d     yw{{~...........
    176c:	87 89 8b 8b 8e 8f 90 8e 8c 85 81 81 7e 7c 7a 7c     ............~|z|
    177c:	86 83 82 80 7d 80 7e 7d 7b 7a 78 76 75 71 73 70     ....}.~}{zxvuqsp
    178c:	67 63 67 6a 6b 6f 72 74 77 79 7c 7f 80 82 83 86     gcgjkortwy|.....
    179c:	96 9e 9b 9f 9e a0 9f 9f 9c 99 95 93 90 8e 8a 8a     ................
    17ac:	79 6f 70 6d 6d 6b 6b 69 68 67 66 66 65 62 64 62     yopmmkkihgffebdb
    17bc:	6d 7d 7d 81 82 85 85 88 8a 8a 8d 8e 8f 91 90 95     m}}.............
    17cc:	8f 82 84 86 85 89 89 8b 89 88 86 82 82 7f 7e 79     ..............~y
    17dc:	7b 8a 8a 86 85 82 81 7d 7d 7c 78 78 75 75 71 72     {......}}|xxuuqr
    17ec:	72 65 62 67 6a 6c 6f 73 74 77 78 7b 7e 7f 82 83     rebgjlostwx{~...
    17fc:	84 93 9e 9c 9e 9d a0 9f 9f 9c 99 96 93 8f 8e 89     ................
    180c:	8b 7d 6f 6e 6e 6c 6c 69 6a 68 68 67 65 66 63 64     .}onnllijhhgefcd
    181c:	62 69 7d 7f 7f 83 84 86 88 89 8b 8b 8e 8e 91 90     bi}.............
    182c:	94 92 83 82 84 86 87 8a 8a 8a 87 86 83 81 7f 7d     ...............}
    183c:	7b 7a 87 8c 87 85 83 82 7f 7d 7b 79 78 76 74 73     {z.......}{yxvts
    184c:	70 74 68 61 67 68 6c 6e 72 75 77 79 7b 7d 7f 81     pthaghlnruwy{}..
    185c:	84 84 8f 9e 9c 9e 9e a0 9f 9f 9d 98 97 93 91 8f     ................
    186c:	8a 8b 81 70 6f 6e 6c 6b 6a 6a 68 66 66 64 65 62     ...ponlkjjhffdeb
    187c:	62 63 66 7b 80 7f 84 83 86 88 89 8c 8b 8e 8f 92     bcf{............
    188c:	91 93 94 86 80 86 86 88 89 8b 89 88 85 83 80 7f     ................
    189c:	7d 7c 79 84 8c 87 86 83 81 7f 7c 7b 78 78 75 74     }|y.......|{xxut
    18ac:	72 71 74 6b 62 66 69 6c 6e 72 74 77 79 7b 7e 7f     rqtkbfilnrtwy{~.
    18bc:	81 84 84 8b 9d 9e 9e a0 9f a1 9e 9c 99 96 94 8f     ................
    18cc:	8f 8b 89 85 71 6d 6e 6b 6b 6a 68 67 67 66 65 64     ....qmnkkjhggfed
    18dc:	63 62 63 64 77 80 7f 84 83 87 87 8a 8a 8d 8e 90     cbcdw...........
    18ec:	91 91 93 95 8a 81 86 86 89 8a 8b 89 88 86 82 80     ................
    18fc:	7e 7c 7c 78 7f 8b 86 85 82 80 7f 7c 7c 79 78 75     ~||x.......||yxu
    190c:	75 72 71 73 70 63 67 6a 6d 6f 72 74 77 79 7b 7e     urqspcgjmortwy{~
    191c:	80 80 85 84 89 9a 9e 9d 9f 9e a1 9f 9d 9a 96 93     ................
    192c:	91 8e 8b 89 86 76 6d 6f 6b 6c 6a 68 68 67 66 65     .....vmokljhhgfe
    193c:	63 63 63 64 64 74 7f 7f 82 84 86 88 8a 8b 8d 8d     cccddt..........
    194c:	90 90 93 93 96 8e 83 86 88 88 8b 8a 8b 86 85 83     ................
    195c:	7f 7f 7c 7c 77 7c 89 87 84 83 81 7f 7b 7c 78 77     ..||w|......{|xw
    196c:	76 74 72 71 72 72 64 66 6b 6b 70 71 75 77 78 7c     vtrqrrdfkkpquwx|
    197c:	7d 7f 81 83 85 86 98 a0 9d a0 9f a1 9e 9d 9a 95     }...............
    198c:	94 90 8e 8c 88 88 78 6d 6e 6c 6b 69 69 67 67 65     ......xmnlkiigge
    199c:	64 64 62 62 63 62 70 7f 81 82 85 86 88 8a 8b 8d     ddbbcbp.........
    19ac:	8e 90 91 92 93 96 92 84 84 87 88 8a 89 8a 86 85     ................
    19bc:	83 81 7e 7c 7b 78 79 86 89 85 83 81 7f 7e 7c 79     ..~|{xy......~|y
    19cc:	77 75 74 72 72 73 75 69 65 6a 6d 70 71 74 75 79     wutrrsuiejmpqtuy
    19dc:	7b 7b 7f 7f 82 84 85 93 a0 9e a1 a0 a1 9e 9d 98     {{..............
    19ec:	96 94 90 8e 8b 89 88 7e 6d 6e 6c 6c 6a 6a 67 66     .......~mnlljjgf
    19fc:	65 65 63 65 64 66 65 6f 80 83 82 84 84 86 88 89     eecedfeo........
    1a0c:	8a 8c 8d 91 93 93 97 94 86 83 86 86 89 89 88 88     ................
    1a1c:	84 83 81 7f 7c 7c 78 78 84 8a 85 83 7f 7e 7b 79     ....||xx.....~{y
    1a2c:	6e 67 69 69 70 79 78 77 71 70 71 70 72 6c 66 68     ngiipyxwqpqprlfh
    1a3c:	6b 6d 6e 6f 73 70 7a 86 86 8b 8b 8b 8d 8d 90 88     kmnospz.........
    1a4c:	80 80 82 84 85 85 88 86 8c 95 94 92 96 93 94 95     ................
    1a5c:	96 8f 86 85 85 86 88 85 8a 8a 91 9b 9a 99 96 93     ................
    1a6c:	94 8e 8f 8b 7d 7a 7c 78 7a 75 73 71 73 7f 80 7f     ....}z|xzusqs...
    1a7c:	7d 7c 7e 7a 7b 79 6d 68 6b 6b 70 6e 6e 6d 6e 79     }|~z{ymhkkpnnmny
    1a8c:	7b 7b 7a 78 79 78 77 77 6c 63 63 62 65 65 68 6c     {{zxyxwwlccbeehl
    1a9c:	6c 77 81 7e 81 82 82 83 85 86 82 7b 7e 7d 81 80     lw.~.......{~}..
    1aac:	81 83 82 8b 95 93 94 95 93 94 90 91 88 81 83 83     ................
    1abc:	85 86 84 89 86 8c 9a 97 96 98 9a 9d 98 9b 93 86     ................
    1acc:	85 85 83 81 81 7f 7d 82 8b 8a 87 82 81 81 7d 7f     ......}.......}.
    1adc:	7c 6e 6b 6e 6c 6c 6d 6d 6b 6d 7b 7e 7e 7e 7b 7d     |nknllmmkm{~~~{}
    1aec:	79 7a 78 6c 66 6b 68 69 69 69 67 65 71 76 75 77     yzxlfkhiiigeqvuw
    1afc:	79 7a 79 7e 7d 73 70 73 73 76 77 7b 7f 7e 8a 92     yzy~}spssvw{.~..
    1b0c:	8f 91 90 92 90 92 93 89 82 85 83 84 81 83 85 83     ................
    1b1c:	8c 97 95 94 95 95 93 95 97 8f 86 8a 8d 8c 8b 8a     ................
    1b2c:	88 85 8c 93 91 90 8f 8b 8d 88 8a 82 71 71 71 71     ............qqqq
    1b3c:	70 71 70 6d 72 7e 7b 7c 7b 79 7a 79 7d 7b 6e 69     pqpmr~{|{yzy}{ni
    1b4c:	6d 6a 6a 6b 6b 69 6c 79 78 78 79 76 72 72 74 72     mjjkkilyxxyvrrtr
    1b5c:	68 67 6b 6a 70 6e 70 73 74 7f 88 84 8a 8d 8e 8c     hgkjpnpst.......
    1b6c:	8f 90 84 7f 83 81 84 85 83 87 85 91 96 91 91 92     ................
    1b7c:	92 92 92 94 8a 83 87 84 88 87 87 89 8a 96 9d 9c     ................
    1b8c:	9a 98 94 96 91 91 88 7d 7d 7c 7c 7a 7a 76 72 79     .......}}||zzvry
    1b9c:	83 7f 80 7e 7d 7d 7b 7b 77 69 6a 6a 6b 6e 6e 70     ...~}}{{wijjknnp
    1bac:	6d 72 7d 7c 7b 7b 79 79 78 77 76 69 66 65 62 65     mr}|{{yyxwvifebe
    1bbc:	65 67 6a 6d 7a 7e 7e 80 81 82 81 84 84 7a 7c 7f     egjmz~~......z|.
    1bcc:	7c 81 80 81 83 83 8f 94 93 94 93 95 94 92 91 85     |...............
    1bdc:	80 84 82 85 86 84 87 86 91 99 97 97 96 99 9b 9b     ................
    1bec:	9b 90 86 86 85 83 82 82 81 7d 85 8e 8a 8a 84 80     .........}......
    1bfc:	81 80 7e 78 6d 6d 6d 6e 6d 6c 6d 6a 70 7c 7c 7f     ..~xmmmnmlmjp||.
    1c0c:	7d 7b 7b 7b 7a 75 6a 68 6a 69 69 68 6b 67 69 72     }{{{zujhjiihkgir
    1c1c:	75 74 75 77 7a 78 7d 7c 6e 70 72 73 76 76 78 7f     utuwzx}|nprsvvx.
    1c2c:	81 8d 91 90 8f 91 91 90 92 91 85 82 86 85 85 83     ................
    1c3c:	82 84 85 91 95 96 94 94 96 95 94 97 8a 85 88 8c     ................
    1c4c:	8e 8b 8c 8a 87 90 96 90 92 8e 8b 8d 89 89 7f 73     ...............s
    1c5c:	71 71 72 70 71 70 6e 77 80 7b 7d 7b 79 79 79 7a     qqrpqpnw.{}{yyyz
    1c6c:	77 6c 6d 6c 6c 6c 6a 6e 69 70 7b 79 78 7a 76 75     wlmllljnip{yxzvu
    1c7c:	71 73 6f 63 68 6a 6a 6d 6f 70 72 78 82 86 86 86     qsochjjmoprx....
    1c8c:	8c 8e 8c 8e 8d 80 80 83 80 84 85 84 85 88 93 96     ................
    1c9c:	92 90 91 92 92 93 92 87 82 87 84 87 87 88 87 8a     ................
    1cac:	97 9e 9a 9a 98 94 94 92 91 84 7e 7e 7c 7e 79 7b     ..........~~|~y{
    1cbc:	77 72 7c 84 7f 7f 7f 7c 7c 7b 7c 72 6a 6b 69 6c     wr|....||{|rjkil
    1ccc:	6b 6f 70 6d 74 7f 79 7a 7c 78 79 78 79 70 67 68     kopmt.yz|xyxypgh
    1cdc:	66 63 65 65 67 67 71 7b 7d 7e 7f 7f 82 81 83 81     fceeggq{}~......
    1cec:	74 7b 7f 7d 7f 81 81 81 87 92 92 94 92 93 96 92     t{.}............
    1cfc:	95 90 81 7f 83 83 83 85 86 84 89 95 97 97 97 95     ................
    1d0c:	98 98 9c 98 8d 87 87 84 86 81 82 80 7f 8a 8f 89     ................
    1d1c:	89 87 81 80 80 7f 73 6e 6e 6d 6e 6d 6c 6e 6c 75     ......snnmnmlnlu
    1d2c:	7d 7a 7d 7f 7b 7c 7a 7b 70 6a 6a 69 6b 69 69 6b     }z}.{|z{pjjikiik
    1d3c:	69 70 75 73 74 75 77 79 78 7c 77 6d 70 73 73 75     ipustuwyx|wmpssu
    1d4c:	77 78 7b 86 8f 8e 90 90 8f 91 90 91 8f 82 82 86     wx{.............
    1d5c:	84 86 85 83 81 88 93 94 94 94 93 95 94 94 94 88     ................
    1d6c:	85 89 88 8d 8c 8d 8b 89 93 96 90 91 90 8d 8b 8b     ................
    1d7c:	88 7b 78 73 70 73 70 70 71 6f 7a 7f 7c 7b 7c 7a     .{xspsppqoz.|{|z
    1d8c:	79 7a 78 71 6d 6e 6b 6e 6c 6c 6c 6c 73 7d 78 79     yzxqmnknlllls}xy
    1d9c:	78 78 76 73 72 6b 63 68 69 6b 6c 6f 70 70 7b 85     xxvsrkchiklopp{.
    1dac:	83 87 85 89 8d 8c 8f 88 7f 7f 83 81 83 84 86 82     ................
    1dbc:	8c 95 95 94 91 8f 93 90 93 8e 84 83 87 86 85 88     ................
    1dcc:	88 87 8c 99 9d 9b 9b 99 98 94 94 8f 80 80 7e 7c     ..............~|
    1ddc:	7e 7b 7b 79 77 7e 84 7f 7f 7e 7d 7c 7d 7b 6d 6b     ~{{yw~...~}|}{mk
    1dec:	6b 6a 6b 6b 6d 6f 6f 78 7f 7b 7b 7a 7a 77 79 78     kjkkmoox.{{zzwyx
    1dfc:	6c 66 69 67 66 64 66 66 68 74 7d 7c 7f 7d 7f 81     lfigfdffht}|.}..
    1e0c:	81 83 7c 75 78 7e 7e 7f 81 81 81 8a 94 91 94 94     ..|ux~~.........
    1e1c:	91 95 93 93 8f 80 81 83 82 84 84 87 85 8b 97 96     ................
    1e2c:	97 97 96 97 96 9b 96 8a 89 88 85 87 83 83 80 84     ................
    1e3c:	8c 8e 8a 89 89 84 7f 81 7d 6f 6f 70 6d 6e 6e 6d     ........}oopmnnm
    1e4c:	6c 6f 78 7c 79 7a 7d 7e 7a 7c 7a 6d 69 6b 69 6a     lox|yz}~z|zmikij
    1e5c:	6b 68 6b 6a 73 78 73 75 73 76 78 79 79 72 6c 70     khkjsxsusvxyyrlp
    1e6c:	71 75 74 77 77 78 87 91 8d 8f 8f 8e 91 91 92 89     qutwwx..........
    1e7c:	83 83 84 87 85 87 84 81 8b 96 92 94 95 92 95 94     ................
    1e8c:	94 90 85 86 88 87 8b 8c 8d 8a 8f 97 96 94 90 90     ................
    1e9c:	8e 8b 8c 86 77 79 76 71 72 70 71 70 73 7c 7f 7c     ....wyvqrpqps|.|
    1eac:	7c 7a 7c 77 7a 76 6a 6c 6e 6b 6d 6d 6b 6c 6d 79     |z|wzvjlnkmmklmy
    1ebc:	7c 79 79 77 79 76 75 72 65 62 66 69 6b 6b 6e 70     |yywyvurebfikknp
    1ecc:	6f 7f 85 82 85 86 85 8b 8d 8c 84 7d 80 80 83 82     o..........}....
    1edc:	83 86 83 8f 97 94 95 93 90 90 92 92 8b 82 84 84     ................
    1eec:	87 85 88 89 86 90 9b 9a 9c 9b 9a 97 94 95 8d 7e     ...............~
    1efc:	81 80 7c 7e 7d 7b 7a 7d 83 82 82 7f 7f 80 7a 7e     ..|~}{z}......z~
    1f0c:	78 6b 6a 6d 69 6c 6b 6c 6d 73 7c 7e 7c 7c 79 7c     xkjmilklms|~||y|
    1f1c:	78 78 77 68 67 6a 67 68 65 65 65 68 77 7c 7a 7e     xxwhgjgheeehw|z~
    1f2c:	7e 7e 80 81 81 77 75 77 7a 80 7d 81 82 81 8d 94     ~~...wuwz.}.....
    1f3c:	90 93 92 93 94 95 93 8b 82 81 81 84 82 84 86 85     ................
    1f4c:	8e 99 95 96 97 96 95 96 99 92 89 89 89 86 86 85     ................
    1f5c:	84 81 88 8f 8e 8c 8a 89 87 80 82 7a 6c 6f 6f 6d     ...........zloom
    1f6c:	6f 6e 6e 6a 73 7a 7b 7a 79 7a 7e 7a 7c 78 6a 69     onnjsz{zyz~z|xji
    1f7c:	6a 6a 69 6b 6b 69 6d 79 79 75 75 74 75 75 7a 76     jjikkimyyuutuuzv
    1f8c:	6d 6c 6e 70 72 73 75 77 79 88 91 8e 8f 91 8f 90     mlnprsuwy.......
    1f9c:	92 90 85 82 83 84 87 85 87 86 84 90 96 93 94 93     ................
    1fac:	94 93 95 95 89 86 86 86 8a 88 8d 8e 8c 94 99 96     ................
    1fbc:	95 91 90 90 8b 8d 82 78 78 79 72 71 71 71 6e 78     .......xxyrqqqnx
    1fcc:	7f 7e 7e 7c 7a 7c 77 7a 73 67 6b 6f 6c 6d 6c 6d     .~~|z|wzsgkolmlm
    1fdc:	6b 71 7b 78 7b 76 73 7a 75 77 72 68 6a 69 6c 6d     kq{x{vszuwrhjilm
    1fec:	69 6d 6e 72 7f 83 81 84 86 8b 89 8d 8a 7d 7f 7e     imnr.........}.~
    1ffc:	80 82 7b 7f 7f 81 8d 93 91 91 94 96 96 98 96 89     ..{.............
    200c:	89 89 89 8b 85 87 89 87 93 99 97 96 96 99 99 93     ................
    201c:	95 89 80 80 80 7d 78 78 77 75 80 84 82 83 80 83     .....}xxwu......
    202c:	85 81 82 7a 6e 70 71 70 6c 6a 6a 67 71 79 77 77     ...znpqpljjgqyww
    203c:	77 79 7c 79 79 74 68 67 6a 68 66 62 66 65 6c 79     wy|yythgjhfbfely
    204c:	7a 7b 7d 81 84 83 87 83 78 79 7b 7a 7c 77 7b 7b     z{}.....xy{z|w{{
    205c:	7f 8b 8f 8c 8e 8f 93 93 95 93 86 85 87 85 88 82     ................
    206c:	84 84 87 92 96 96 94 97 9b 9a 9b 9b 8d 8a 89 89     ................
    207c:	85 80 81 7f 7c 89 8b 88 88 86 88 8a 86 86 7c 72     ....|.........|r
    208c:	74 74 74 6e 6e 6e 6a 77 7d 79 7b 78 7b 7e 7a 7c     tttnnnjw}y{x{~z|
    209c:	73 69 6a 6a 6b 66 66 66 63 6c 76 72 74 73 78 7a     sijjkfffclvrtsxz
    20ac:	79 80 78 6e 73 72 74 74 72 73 75 7a 87 89 88 89     y.xnsrttrsuz....
    20bc:	8d 91 8f 93 8d 81 83 83 84 85 80 82 82 86 91 95     ................
    20cc:	93 94 95 9b 97 9b 99 8a 8a 8b 8b 8c 87 88 86 87     ................
    20dc:	93 94 8f 91 8d 90 90 8d 8c 80 79 79 79 77 72 73     ..........yyywrs
    20ec:	71 70 7d 80 7d 7e 7e 7f 81 7e 7e 73 6c 6d 6c 6d     qp}.}~~..~~slmlm
    20fc:	67 68 68 65 71 78 73 76 74 77 79 77 77 6f 67 69     ghheqxsvtwywwogi
    210c:	69 6b 6c 6a 6c 6e 76 80 82 83 82 88 8a 89 8d 87     ikljlnv.........
    211c:	7b 7f 7f 80 7f 7d 7e 7e 86 90 92 92 90 94 98 95     {....}~~........
    212c:	98 95 87 89 89 89 8a 85 87 87 8a 96 98 99 97 97     ................
    213c:	9a 98 96 92 86 81 81 80 7f 78 7a 77 77 83 86 81     .........xzww...
    214c:	83 81 84 83 82 81 75 71 6f 70 71 69 6b 6a 68 74     ......uqopqikjht
    215c:	7a 75 77 76 79 7a 78 79 6e 68 68 69 69 65 64 65     zuwvyzxynhhiiede
    216c:	65 6f 79 79 7a 7a 81 83 82 86 7d 75 7a 7a 7b 7a     eoyyzz....}uzz{z
    217c:	79 79 7b 84 8c 8d 8c 8c 90 95 91 96 8f 84 87 87     yy{.............
    218c:	87 87 82 85 84 8b 95 96 96 95 98 9c 99 9b 98 8a     ................
    219c:	8b 8a 8a 86 80 81 7f 80 8c 8c 88 88 88 8b 89 89     ................
    21ac:	83 78 75 75 74 75 6d 6e 6e 6c 7b 7d 7a 7a 7a 7c     .xuutumnnl{}zzz|
    21bc:	7d 7c 79 6f 6a 6b 6a 6b 65 65 67 65 71 77 72 74     }|yojkjkeegeqwrt
    21cc:	73 79 79 79 7e 73 6e 73 72 74 72 73 73 75 80 88     syyy~snsrtrssu..
    21dc:	88 89 88 8c 90 8d 91 89 7f 82 85 84 82 82 82 82     ................
    21ec:	8b 94 92 95 92 96 9a 97 99 93 88 89 8c 8b 8a 88     ................
    21fc:	88 86 8b 96 94 91 8f 90 91 90 90 89 7c 7c 7b 7a     ............||{z
    220c:	79 72 73 72 72 7f 81 7c 7e 7e 81 7e 81 7b 6f 6c     yrsrr..|~~.~.{ol
    221c:	6d 6d 6c 67 68 69 68 74 79 74 76 76 78 79 79 76     mmlghihtytvvxyyv
    222c:	6b 67 69 6a 6b 68 6b 6c 6d 7c 81 80 83 82 89 8a     kgijkhklm|......
    223c:	89 8b 83 7b 7f 7f 80 7d 7d 7e 7d 8a 91 90 92 90     ...{...}}~}.....
    224c:	94 98 94 98 8f 86 88 89 8a 86 86 86 85 8e 98 97     ................
    225c:	97 97 99 9c 97 99 8f 83 84 80 81 7e 78 79 77 7b     ...........~xyw{
    226c:	86 86 82 83 84 85 83 84 7e 71 72 70 6f 70 68 6b     ........~qrpophk
    227c:	6b 6c 77 76 74 73 73 75 72 73 71 67 67 6c 6d 71     klwvtssursqgglmq
    228c:	6e 71 74 76 86 8b 8a 8d 8e 94 95 97 99 8d 89 8e     nqtv............
    229c:	8d 90 8a 8a 88 83 8d 8f 8c 8a 86 8a 87 85 84 78     ...............x
    22ac:	6e 70 6e 6c 67 64 65 61 6b 72 6e 71 72 79 7e 7e     npnlgdeakrnqry~~
    22bc:	83 7c 76 7a 7a 7e 7d 7b 80 7f 87 94 93 95 96 9b     .|vzz~}{........
    22cc:	9f 9d a1 98 8b 88 87 85 81 7a 7b 76 7a 83 81 80     .........z{vz...
    22dc:	7d 7c 80 7b 7c 76 68 67 66 65 64 5f 64 65 6a 7a     }|.{|vhgfed_dejz
    22ec:	7e 7e 81 83 8b 8a 8e 8d 83 81 85 86 88 85 87 88     ~~..............
    22fc:	89 98 9c 9b 99 96 98 95 93 8f 82 7a 7b 77 77 70     ...........z{wwp
    230c:	6f 6d 6c 75 7a 75 75 73 77 75 73 74 6a 66 6a 6e     omluzuuswustjfjn
    231c:	71 6e 70 75 74 81 8a 8b 8c 8e 92 97 94 99 91 8a     qnput...........
    232c:	8c 8e 90 8e 8a 89 86 89 92 8d 8c 88 89 89 86 85     ................
    233c:	7d 6f 6f 6f 6c 6a 65 65 63 66 72 70 70 71 76 7c     }oooljeecfrppqv|
    234c:	7e 81 80 75 78 7b 7b 7e 7a 7f 80 83 92 94 95 96     ~..ux{{~z.......
    235c:	98 9e 9d 9f 9c 8f 89 89 86 82 7c 7a 79 78 82 83     ..........|zyx..
    236c:	80 7e 7c 7f 7c 7c 79 6d 66 68 65 65 61 62 65 66     .~|.||ymfheeabef
    237c:	75 7e 7d 81 82 89 8c 8c 8f 85 81 85 86 88 84 85     u~}.............
    238c:	88 88 93 9b 9b 9a 98 99 97 93 93 86 7c 7b 7a 77     ............|{zw
    239c:	73 6e 6e 6b 71 7a 77 75 74 75 78 73 75 6e 66 69     snnkqzwutuxsunfi
    23ac:	6c 6e 70 6e 73 73 7a 88 89 8c 8c 90 96 94 98 95     lnpnssz.........
    23bc:	8b 8a 8d 8e 8e 8a 8b 87 87 91 8f 8d 8a 89 8a 88     ................
    23cc:	85 83 75 70 6f 6e 6c 67 65 65 64 6f 72 6f 72 74     ..uponlgeedorort
    23dc:	7b 7e 80 82 78 75 79 7b 7c 7b 7d 7e 7f 8d 94 94     {~..xuy{|{}~....
    23ec:	96 95 9c 9e 9d a0 93 8b 89 86 84 7e 7b 7a 77 7f     ...........~{zw.
    23fc:	84 81 7f 7e 7f 7f 7c 7c 71 67 67 66 66 62 5f 64     ...~..||qggffb_d
    240c:	65 6e 7c 7d 7f 82 85 8b 8b 8e 8a 80 83 84 87 85     en|}............
    241c:	83 88 86 8e 9a 9b 9b 99 98 98 94 92 8d 7e 7c 79     .............~|y
    242c:	78 75 6f 6f 6d 6e 78 79 76 76 74 78 74 74 72 66     xuoomnxyvvtxttrf
    243c:	67 6a 6d 70 6d 70 73 75 85 8b 8a 8d 8e 95 95 97     gjmpmpsu........
    244c:	97 8d 8a 8c 8d 8f 8b 8a 89 84 8f 92 8d 8c 88 8b     ................
    245c:	88 85 86 79 6f 70 6d 6e 67 66 65 63 6b 73 6f 71     ...yopmngfecksoq
    246c:	72 79 7c 7d 81 7b 74 78 79 7d 7b 7b 7e 7f 88 94     ry|}.{txy}{{~...
    247c:	93 96 95 9a 9d 9d a0 99 8d 8b 89 86 82 7b 7b 76     .............{{v
    248c:	7a 85 81 80 7d 7d 81 7d 7d 76 69 67 67 66 63 5f     z...}}.}}viggfc_
    249c:	61 64 6b 79 7d 7d 81 83 89 8b 8c 8d 81 82 84 86     adky}}..........
    24ac:	88 83 86 87 8a 98 9b 9b 9a 98 99 97 93 91 83 7b     ...............{
    24bc:	7c 78 77 70 6e 6e 6b 76 7a 76 76 73 76 77 73 74     |xwpnnkvzvvsvwst
    24cc:	69 65 6a 6d 6f 6f 6f 72 74 7f 8b 89 8c 8c 92 95     iejmooort.......
    24dc:	96 99 90 89 8b 8d 8e 8d 8a 8a 86 8b 92 8f 8d 89     ................
    24ec:	8a 8b 86 87 7d 71 71 6e 6e 6b 64 66 62 68 73 70     ....}qqnnkdfbhsp
    24fc:	71 71 76 7c 7d 81 7f 75 76 79 7b 7c 79 7e 7d 83     qqv|}..uvy{|y~}.
    250c:	90 94 93 96 97 9e 9d 9e 9e 90 8b 8a 86 84 7c 7c     ..............||
    251c:	79 78 83 83 81 7e 7e 81 7e 7c 7b 6e 66 67 67 65     yx...~~.~|{nfgge
    252c:	60 60 64 66 73 7c 7d 7f 82 88 8a 8b 8e 86 7f 84     ``dfs|}.........
    253c:	85 86 85 84 88 87 92 9c 9b 9b 98 99 99 93 94 88     ................
    254c:	7d 7c 79 79 73 70 6f 6c 71 7b 78 77 74 76 77 75     }|yyspolq{xwtvwu
    255c:	75 6f 65 68 6a 6e 6e 6e 71 73 79 88 89 8b 8c 8f     uoehjnnnqsy.....
    256c:	94 95 97 95 89 8b 8c 8e 8f 8a 8c 89 88 92 90 8e     ................
    257c:	8a 8a 8b 89 86 84 75 71 70 6f 6c 67 65 65 65 6f     ......uqpolgeeeo
    258c:	73 6f 71 72 79 7c 7d 81 77 73 78 79 7d 7a 7b 7e     soqry|}.wsxy}z{~
    259c:	7e 8c 94 93 95 96 9a 9e 9d a0 94 8c 8a 88 85 80     ~...............
    25ac:	7b 7b 77 7e 86 81 81 7d 80 7f 7d 7c 73 67 68 67     {{w~...}..}|sghg
    25bc:	65 62 5e 63 63 6d 7b 7c 7e 81 85 8b 8a 8e 8a 7f     eb^ccm{|~.......
    25cc:	83 84 86 85 84 86 87 8d 99 9b 9b 9a 98 9b 95 94     ................
    25dc:	8d 7e 7c 7a 79 76 6f 70 6d 6e 7a 79 77 75 75 77     .~|zyvopmnzywuuw
    25ec:	76 74 72 65 66 6a 6d 6e 6d 6f 73 75 84 89 89 8c     vtrefjmnmosu....
    25fc:	8c 94 95 95 97 8d 8a 8d 8d 8e 8c 8b 8b 86 90 92     ................
    260c:	8e 8c 89 8c 8a 87 86 79 71 71 6f 6e 69 65 67 63     .......yqqoniegc
    261c:	6c 72 6f 71 71 76 7c 7b 81 7a 74 78 78 7c 7b 79     lroqqv|{.ztxx|{y
    262c:	7f 7e 86 93 92 95 94 99 9d 9c a0 99 8e 8b 89 87     .~..............
    263c:	82 7d 7d 78 7c 86 84 82 7f 7f 81 7c 7e 77 6a 68     .}}x|......|~wjh
    264c:	67 65 64 5f 63 62 69 76 7c 7c 80 82 88 88 8c 8c     ged_cbiv||......
    265c:	82 80 84 84 86 84 85 87 88 96 9c 9c 9b 9a 9a 98     ................
    266c:	95 92 85 7d 7c 7a 78 73 70 6f 6c 76 7b 78 76 75     ...}|zxspolv{xvu
    267c:	77 77 75 74 6b 64 68 6b 6e 6c 6f 72 72 7d 89 88     wwutkdhknlorr}..
    268c:	8b 8b 91 95 94 97 91 88 8c 8c 8f 8d 8b 8c 87 8b     ................
    269c:	94 90 8e 8a 8a 8b 87 87 7f 72 71 70 6f 6b 66 67     .........rqpokfg
    26ac:	65 67 73 71 70 70 74 7a 7c 7f 7e 73 76 77 7a 7b     egsqpptz|.~svwz{
    26bc:	79 7c 7e 82 8f 94 93 96 96 9d 9d 9e 9e 90 8c 8a     y|~.............
    26cc:	88 86 7e 7d 7b 79 82 85 81 81 7d 81 7e 7d 7c 6e     ..~}{y....}.~}|n
    26dc:	68 68 67 66 61 5f 63 63 72 7a 7c 7e 80 86 8a 89     hhgfa_ccrz|~....
    26ec:	8e 84 80 84 84 86 85 83 88 87 91 9b 9a 9c 99 9b     ................
    26fc:	9b 95 94 8a 7d 7e 7b 79 75 6f 71 6d 71 7b 78 76     ....}~{yuoqmq{xv
    270c:	75 76 78 75 74 6f 64 67 69 6d 6d 6d 72 71 79 86     uvxutodgimmmrqy.
    271c:	89 8a 8b 8f 95 93 97 94 89 8a 8b 8e 8e 8a 8d 8a     ................
    272c:	88 93 91 8e 8c 8b 8c 89 87 85 75 71 72 6e 6e 66     ..........uqrnnf
    273c:	67 65 65 6f 72 70 6f 71 79 7a 7d 7f 77 74 78 78     geeorpoqyz}.wtxx
    274c:	7c 79 7b 7d 7e 8b 92 93 95 94 9b 9c 9c 9f 96 8c     |y{}~...........
    275c:	8d 88 87 80 7d 7c 78 7f 86 83 80 7f 7f 81 7d 7e     ....}|x.......}~
    276c:	74 68 69 68 67 62 5f 62 62 6c 79 7b 7d 7f 83 89     thihgb_bbly{}...
    277c:	88 8c 89 7e 82 82 85 84 83 86 86 8c 99 9b 9a 9b     ...~............
    278c:	99 9b 96 95 8f 80 7e 7c 7b 77 72 72 6e 6f 79 7b     ......~|{wrrnoy{
    279c:	77 77 75 79 75 76 72 67 64 69 6a 6e 6b 6f 71 74     wwuyuvrgdijnkoqt
    27ac:	82 89 88 8b 8d 92 94 94 96 8b 88 8c 8c 8e 8a 8b     ................
    27bc:	8a 88 8f 94 8f 8e 8b 8b 8c 87 87 7b 71 72 70 6e     ...........{qrpn
    27cc:	6a 67 67 65 6b 74 70 71 70 76 7c 7b 80 7b 72 77     jggektpqpv|{.{rw
    27dc:	77 7b 7a 79 7d 7e 85 92 93 93 95 98 9c 9c 9f 99     w{zy}~..........
    27ec:	8e 8c 8a 87 84 7d 7c 79 7b 86 83 82 7f 7f 82 7e     .....}|y{......~
    27fc:	7e 78 6b 68 68 67 64 5f 60 62 66 76 7a 7c 7f 82     ~xkhhgd_`bfvz|..
    280c:	89 88 8b 8c 82 7f 83 83 86 83 85 86 88 95 9b 9a     ................
    281c:	9c 99 9c 98 96 93 86 7e 7d 7b 78 73 71 6f 6e 76     .......~}{xsqonv
    282c:	7b 78 77 76 77 77 75 75 6b 62 68 6a 6d 6b 6d 70     {xwvwwuukbhjmkmp
    283c:	71 7d 87 88 89 8c 8f 94 93 97 8f 88 8a 8c 8d 8b     q}..............
    284c:	8b 8b 89 8c 95 90 8f 8b 8c 8c 88 89 80 74 72 71     .............trq
    285c:	6f 6d 66 68 64 68 72 72 6f 71 73 79 7b 7d 7d 73     omfhdhrroqsy{}}s
    286c:	74 78 79 7a 78 7b 7d 80 8f 92 93 94 96 9c 9d 9e     txyzx{}.........
    287c:	9e 92 8e 8c 89 87 80 7e 7b 7a 83 87 82 82 7e 81     .......~{z....~.
    288c:	7f 7e 7c 6f 68 69 66 67 61 61 61 63 70 7a 7a 7e     .~|ohifgaaacpzz~
    289c:	7f 84 88 88 8d 85 7e 82 82 86 83 84 87 85 91 99     ......~.........
    28ac:	9a 9b 9a 9c 9a 96 96 8a 7f 7d 7c 7a 75 72 72 6d     .........}|zurrm
    28bc:	73 7c 79 78 76 76 79 74 76 6f 63 66 68 6b 6c 6c     s|yxvvytvocfhkll
    28cc:	70 70 78 85 87 89 8a 8e 93 93 95 94 88 8a 8c 8c     ppx.............
    28dc:	8d 8a 8c 8a 89 94 92 8f 8c 8b 8c 89 87 85 76 72     ..............vr
    28ec:	72 6f 6e 67 68 67 65 70 73 70 71 70 78 79 7c 7e     ronghgepspqpxy|~
    28fc:	76 72 77 77 7b 79 7a 7d 7e 8b 92 92 93 95 99 9d     vrww{yz}~.......
    290c:	9b 9f 95 8e 8d 8a 88 83 7f 7e 7a 80 88 83 82 80     .........~z.....
    291c:	81 81 7e 7e 74 6a 68 68 67 64 5e 62 62 6b 77 7a     ..~~tjhhgd^bbkwz
    292c:	7c 7e 81 89 87 8c 88 7f 80 83 84 85 82 85 86 8a     |~..............
    293c:	99 99 9b 9b 9a 9d 97 97 90 82 7d 7d 7b 78 72 71     ..........}}{xrq
    294c:	6f 6f 7b 7b 78 78 76 79 77 75 74 66 63 68 69 6d     oo{{xxvywutfchim
    295c:	6b 6d 71 73 80 87 87 89 8c 91 94 94 96 8c 87 8b     kmqs............
    296c:	8b 8e 8a 8c 8b 89 90 96 90 8f 8b 8c 8d 88 88 7b     ...............{
    297c:	73 72 71 70 6a 68 67 65 6c 75 71 71 70 75 79 7a     srqpjhgeluqqpuyz
    298c:	7e 7a 71 76 77 7a 79 79 7c 7d 84 91 91 93 94 97     ~zqvwzyy|}......
    299c:	9c 9a 9e 99 8f 8d 8c 88 85 7e 7f 7a 7d 86 86 82     .........~.z}...
    29ac:	81 7f 82 7e 7e 7a 6b 6a 69 68 65 61 62 61 66 75     ...~~zkjiheabafu
    29bc:	79 7b 7d 80 86 88 8a 8a 81 7e 82 83 85 81 84 85     y{}......~......
    29cc:	86 94 99 9a 9a 9b 9c 9a 97 95 87 7f 7e 7c 79 74     ............~|yt
    29dc:	72 70 6e 77 7c 79 77 76 77 78 75 76 6a 63 66 69     rpnw|ywvwxuvjcfi
    29ec:	6c 6c 6c 70 70 7c 87 87 89 8b 8f 94 93 96 90 87     lllpp|..........
    29fc:	8b 8b 8e 8c 8b 8c 8a 8d 96 92 90 8c 8d 8e 89 8a     ................
    2a0c:	82 74 73 71 70 6c 68 69 65 68 73 72 71 6f 72 77     .tsqplhiehsrqorw
    2a1c:	79 7c 7d 72 74 76 79 79 77 7a 7c 7f 8e 92 91 94     y|}rtvyywz|.....
    2a2c:	95 9b 9a 9d 9c 92 8d 8e 8a 88 80 7f 7c 7a 85 86     ............|z..
    2a3c:	83 81 80 81 81 7d 7d 71 68 6a 68 66 61 5f 61 62     .....}}qhjhfa_ab
    2a4c:	6f 79 7a 7c 7e 85 88 87 8c 84 7e 82 83 84 83 83     oyz|~.....~.....
    2a5c:	87 86 8f 9a 99 9c 9a 9d 9d 98 97 8c 80 7f 7c 7b     ..............|{
    2a6c:	76 72 71 6e 73 7c 7a 79 76 77 79 76 76 70 63 65     vrqns|zyvwyvvpce
    2a7c:	67 6a 6c 6a 6f 70 75 84 86 88 89 8d 92 92 96 93     gjljopu.........
    2a8c:	89 88 8b 8b 8d 8a 8c 8c 8b 95 94 92 8e 8e 8f 8b     ................
    2a9c:	8a 88 79 72 73 72 6f 68 69 66 66 70 73 6f 70 70     ..yrsrohiffpsopp
    2aac:	76 78 79 7e 74 6f 75 77 78 77 78 7a 7c 87 91 8f     vxy~touwxwxz|...
    2abc:	91 93 96 9b 9a 9f 95 8c 8f 8b 8b 83 7f 7f 7a 82     ..............z.
    2acc:	89 88 82 75 81 85 81 82 7e 7b 7a 78 77 72 6e 6d     ...u....~{zxwrnm
    2adc:	6d 6e 73 6b 67 6a 6f 74 78 79 7b 7e 80 83 84 84     mnskgjotxy{~....
    2aec:	83 84 8b 98 99 98 9a 99 9c 9c 9a 95 95 90 8f 8a     ................
    2afc:	8b 84 71 6e 6f 6b 6d 69 6b 69 68 6d 6a 69 68 68     ..qnokmikihmjihh
    2b0c:	68 73 7c 7b 79 7c 7e 7f 82 83 87 87 8b 8f 91 93     hs|{y|~.........
    2b1c:	8f 84 89 89 8a 8c 88 8a 8b 8b 8a 85 83 82 7e 83     ..............~.
    2b2c:	8f 8c 8b 89 86 85 81 80 79 77 75 73 72 6f 70 62     ........ywusropb
    2b3c:	5d 64 67 6a 6c 70 72 75 77 79 79 77 7d 7d 86 92     ]dgjlpruwyyw}}..
    2b4c:	90 95 94 98 9c 9d 9d 9f a0 9e 9c 97 95 89 7d 79     ..............}y
    2b5c:	79 76 75 74 72 71 75 72 72 6f 6e 6d 6b 77 78 71     yvutrqurronmkwxq
    2b6c:	70 70 71 73 76 78 7b 7d 84 86 86 8b 82 7c 7f 81     ppqsvx{}.....|..
    2b7c:	81 81 81 85 86 87 89 8c 8b 8f 8f 94 9b 99 94 93     ................
    2b8c:	8f 8d 8a 83 81 7f 7c 7b 79 78 75 68 67 6a 67 66     ......|{yxuhgjgf
    2b9c:	66 64 66 68 6c 6a 6c 70 71 74 7f 8a 88 8b 90 93     fdfhljlpqt......
    2bac:	94 95 97 96 99 99 9a 98 97 94 87 88 85 81 81 7d     ...............}
    2bbc:	7f 7e 7d 7b 79 77 75 74 74 7d 7a 78 76 75 73 72     .~}{ywutt}zxvusr
    2bcc:	71 6e 71 75 77 79 7d 7e 77 71 78 78 76 79 7b 7c     qnquwy}~wqxxvy{|
    2bdc:	80 80 83 84 88 8d 8e 95 a2 a0 a0 9f 9c 97 91 8e     ................
    2bec:	8c 89 85 84 81 81 7b 73 70 70 6e 6d 6c 6b 6a 67     ......{sppnmlkjg
    2bfc:	63 62 62 61 65 67 76 7d 7e 85 87 89 8a 8c 8d 8e     cbbaegv}~.......
    2c0c:	91 92 90 8e 93 8a 83 87 87 8a 8a 8e 8f 8b 8a 86     ................
    2c1c:	85 81 81 7d 7c 83 83 80 7d 7c 7a 79 76 78 79 77     ...}|...}|zyvxyw
    2c2c:	75 74 72 73 68 66 69 68 6d 6e 71 72 77 78 7a 7f     utrshfihmnqrwxz.
    2c3c:	84 86 85 91 9b 99 9b 9c 9c 98 99 9a 96 96 91 90     ................
    2c4c:	8c 8c 89 7a 79 77 75 74 71 72 70 6b 6a 68 67 65     ...zywutqrpkjhge
    2c5c:	65 65 6f 73 75 7a 7a 7f 80 82 82 85 86 85 85 87     eeosuzz.........
    2c6c:	88 81 7c 7f 81 83 89 8c 8c 8f 90 91 90 8f 8d 86     ..|.............
    2c7c:	87 91 8b 89 88 85 83 80 81 82 7e 7e 7d 7a 7a 75     ..........~~}zzu
    2c8c:	67 63 5f 5f 5e 61 66 67 6c 6e 74 78 7a 7e 7e 8b     gc__^afglntxz~~.
    2c9c:	92 91 93 92 8f 92 92 94 95 95 98 98 99 9d 92 87     ................
    2cac:	85 83 80 7f 7c 7a 73 73 70 70 6e 6e 6c 6e 7a 7d     ....|zssppnnlnz}
    2cbc:	7a 79 76 75 74 74 77 78 77 78 7b 7e 80 75 74 77     zyvuttwxwx{~.utw
    2ccc:	7a 7f 83 84 86 87 8a 8a 8d 8d 8c 8a 95 9d 99 97     z...............
    2cdc:	93 8f 8e 8e 8e 8a 89 86 85 81 81 7b 69 67 66 65     ...........{igfe
    2cec:	66 63 63 61 61 64 6a 6b 6e 71 73 82 87 89 87 86     fccaadjknqs.....
    2cfc:	88 8a 8b 8d 8f 90 91 94 99 9a 93 8b 8f 8e 8e 8b     ................
    2d0c:	86 80 80 7d 7c 7a 77 78 72 7a 86 84 81 80 7c 7c     ...}|zwxrz....||
    2d1c:	79 79 74 70 6d 6e 6e 70 72 68 69 6d 74 78 79 7b     yytpmnnprhimtxy{
    2d2c:	7e 80 81 85 84 83 83 84 91 98 98 9a 9b 9b 9f 9e     ~...............
    2d3c:	99 97 93 91 8d 8b 8b 7e 70 70 6d 6d 6b 6b 69 69     .......~ppmmkkii
    2d4c:	6b 6c 69 68 68 65 69 76 7b 78 79 7b 7e 7f 82 84     klihheiv{xy{~...
    2d5c:	85 87 8c 91 91 93 88 85 88 89 8b 8a 88 8c 8b 8c     ................
    2d6c:	89 87 84 81 81 89 91 8b 8b 88 86 83 82 7c 78 75     .............|xu
    2d7c:	74 74 70 72 6c 5f 60 66 68 6b 6e 70 73 75 77 79     ttprl_`fhknpsuwy
    2d8c:	75 79 7a 7d 8b 92 91 93 95 9b 9a 9c 9e 9d 9f 9c     uyz}............
    2d9c:	9c 96 92 85 7c 7a 79 76 75 74 72 76 74 73 72 6f     ....|zyvutrvtsro
    2dac:	6e 6b 70 78 74 71 6f 70 71 74 77 79 7b 82 86 85     nkpxtqopqtwy{...
    2dbc:	89 89 7e 7d 7f 83 80 80 82 83 87 87 8a 8b 8c 91     ..~}............
    2dcc:	90 98 9b 98 94 91 8e 8c 87 81 81 7e 7c 7a 79 79     ...........~|zyy
    2ddc:	70 68 6a 67 67 66 66 65 65 6a 69 6a 6c 71 72 76     phjggffeejijlqrv
    2dec:	85 88 89 8d 92 92 93 94 96 97 98 99 99 95 98 8d     ................
    2dfc:	87 86 83 81 7f 7e 80 7f 7d 7b 79 78 75 74 79 7c     .....~..}{yxuty|
    2e0c:	7a 78 77 75 73 73 70 70 74 76 78 79 7d 7c 73 73     zxwusspptvxy}|ss
    2e1c:	77 73 76 79 7b 7d 80 81 84 84 8b 8d 8e 9a a0 a0     wsvy{}..........
    2e2c:	a0 9e 9a 95 90 8e 8a 89 86 85 80 81 7a 71 70 6f     ............zqpo
    2e3c:	6d 6e 6b 6b 69 66 62 61 61 63 65 6c 7a 7d 81 87     mnkkifbaacelz}..
    2e4c:	86 89 8b 8c 8d 8f 90 90 8e 90 91 87 84 87 88 89     ................
    2e5c:	8d 8f 8e 8c 88 86 83 82 80 7c 7e 86 81 81 7d 7c     .........|~...}|
    2e6c:	7a 78 77 7a 78 76 75 73 72 6e 64 66 66 67 6c 6d     zxwzxvusrndffglm
    2e7c:	72 73 76 78 7b 80 84 84 89 95 9a 99 9b 9c 9a 98     rsvx{...........
    2e8c:	9b 9a 98 96 93 90 8d 8f 84 7a 7b 77 77 74 73 71     .........z{wwtsq
    2e9c:	6d 6a 68 68 66 67 63 69 71 74 76 79 7b 7d 80 81     mjhhfgciqtvy{}..
    2eac:	82 86 83 84 84 88 87 7e 7c 81 81 87 8a 8d 8d 8f     .......~|.......
    2ebc:	90 91 91 8f 8b 83 8d 8f 8c 8a 86 85 82 83 83 82     ................
    2ecc:	7f 7d 7b 79 79 70 64 60 5f 5e 60 62 65 67 6b 6e     .}{yypd`_^`begkn
    2edc:	76 78 7a 7c 80 8f 91 92 92 90 90 92 93 94 96 96     vxz|............
    2eec:	98 98 9d 9c 8e 85 86 82 81 7f 7c 77 73 74 71 72     ..........|wstqr
    2efc:	6e 6f 6b 72 7e 7b 7a 78 77 75 75 74 76 76 75 7a     nokr~{zxwuutvvuz
    2f0c:	7a 7f 7c 73 75 76 7d 81 82 84 86 87 8a 8b 8e 8c     z.|suv}.........
    2f1c:	8b 8c 9a 9d 98 97 92 90 90 90 8d 8a 89 86 84 81     ................
    2f2c:	81 74 66 69 66 65 63 63 63 61 63 67 69 6a 6f 6f     .tfifecccacgijoo
    2f3c:	79 85 88 86 86 86 89 89 8b 8d 8e 8e 92 96 9a 98     y...............
    2f4c:	8e 8c 90 8d 8f 8a 85 80 80 7d 7c 79 79 76 75 80     .........}|yyvu.
    2f5c:	87 82 82 7f 7e 7a 7a 77 72 70 6e 6e 6e 71 6f 66     ....~zzwrpnnnqof
    2f6c:	6b 70 75 77 78 7c 7c 80 80 83 82 81 84 86 95 98     kpuwx||.........
    2f7c:	98 99 9a 9e a0 9c 9a 96 94 91 8d 8c 86 77 6f 71     .............woq
    2f8c:	6e 6e 6c 6a 6a 6a 6d 6a 6a 69 68 66 6d 7a 77 77     nnljjjmjjihfmzww
    2f9c:	79 7d 7e 80 81 85 85 89 8f 90 92 91 86 86 89 89     y}~.............
    2fac:	8a 88 89 8b 8b 8b 88 85 83 81 84 8d 8f 8c 89 87     ................
    2fbc:	84 83 80 7a 77 77 74 75 70 73 68 5e 63 65 68 6a     ...zwwtupsh^cehj
    2fcc:	6d 71 73 76 77 76 77 7b 7b 81 90 91 92 94 99 9a     mqsvwvw{{.......
    2fdc:	9b 9c 9c 9d 9e 9e 9a 94 8f 82 7b 7a 78 76 76 73     ..........{zxvvs
    2fec:	75 76 73 73 70 70 6e 6c 73 77 72 71 70 70 71 74     uvssppnlswrqppqt
    2ffc:	76 78 7d 82 83 85 88 85 7a 7d 81 7f 7f 81 84 84     vx}.....z}......
    300c:	88 88 8b 8a 90 92 92 9b 9c 97 94 92 90 8a 85 82     ................
    301c:	81 7d 7d 7a 79 78 6c 69 69 67 67 66 65 65 65 69     .}}zyxliiggfeeei
    302c:	68 69 6d 70 71 7a 87 88 8b 90 91 93 93 96 95 98     himpqz..........
    303c:	98 9a 95 97 95 8a 87 87 83 82 7e 82 80 7f 7c 7b     ..........~...|{
    304c:	79 78 76 74 7a 7d 79 79 76 76 73 74 71 71 75 74     yxvtz}yyvvstqqut
    305c:	79 79 7f 79 6f 76 74 75 78 78 7b 7c 80 81 84 86     yy.yovtuxx{|....
    306c:	8d 8b 91 9e a0 a0 9f 9f 99 93 91 8e 8b 89 85 84     ................
    307c:	81 81 76 71 71 6f 6e 6d 6c 69 66 69 68 66 67 68     ..vqqonmlifihfgh
    308c:	6a 75 80 81 82 85 85 88 89 8c 88 89 8c 8c 8e 8f     ju..............
    309c:	8d 82 84 86 88 89 8b 8b 88 89 88 87 85 82 81 7e     ...............~
    30ac:	89 8b 85 86 83 80 7d 7c 79 72 72 71 6e 6d 6d 65     ......}|yrrqnmme
    30bc:	5f 64 67 6a 6c 70 73 74 7c 7e 81 82 84 86 8b 99     _dgjlpst|~......
    30cc:	99 9b 9b 9c 9c 9c 9f 9a 97 93 91 8d 8c 88 7a 74     ..............zt
    30dc:	75 72 72 6f 70 6d 6e 71 6e 6e 6c 6c 6a 72 79 74     urropmnqnnlljryt
    30ec:	77 77 7c 7d 80 81 7e 7f 82 84 85 88 84 7a 7f 7f     ww|}..~......z..
    30fc:	82 83 86 87 89 8e 92 93 90 90 8b 8c 96 94 91 8e     ................
    310c:	8c 89 86 84 80 7a 7a 77 77 74 74 68 60 61 60 5f     .....zzwwtth`a`_
    311c:	60 63 65 6a 70 74 75 78 7a 7c 85 90 91 92 94 94     `cejptuxz|......
    312c:	96 96 98 94 95 95 98 98 98 94 85 82 81 7d 7d 79     .............}}y
    313c:	79 77 78 78 77 75 74 73 70 7b 7e 7b 79 78 76 74     ywxxwutsp{~{yxvt
    314c:	74 72 71 73 76 78 7a 7d 78 71 75 77 79 7c 7e 81     trqsvxz}xquwy|~.
    315c:	82 89 8a 8c 8c 90 8f 95 a1 a1 9d 9b 96 95 90 8f     ................
    316c:	89 85 82 81 7d 7d 7a 6c 68 67 66 65 65 64 62 64     ....}}zlhgfeedbd
    317c:	66 67 69 6c 6f 71 7c 87 85 8a 8a 8b 8d 8e 90 8c     fgiloq|.........
    318c:	8f 8f 91 92 94 90 85 89 89 8a 8a 87 86 83 83 84     ................
    319c:	81 7f 7d 7b 7a 86 86 81 81 7d 7d 79 79 74 70 6f     ..}{z....}}yytpo
    31ac:	6d 6d 6e 70 6a 65 6b 6c 70 71 75 76 7b 80 82 85     mmnpjeklpquv{...
    31bc:	86 89 89 90 9d 9b 9e 9e 9f a0 9d 9c 94 91 8d 8b     ................
    31cc:	88 87 81 74 70 71 6d 6d 6b 6c 69 6a 6d 6c 69 6a     ...tpqmmklijmlij
    31dc:	68 67 72 7a 7b 7d 7f 81 82 85 85 84 84 86 89 89     hgrz{}..........
    31ec:	8d 86 7f 83 83 86 87 89 8a 8d 90 91 8d 8b 8a 86     ................
    31fc:	86 91 8e 8c 89 85 85 81 81 7a 77 75 75 72 71 6f     .........zwuurqo
    320c:	63 5c 5f 5f 62 65 6a 6b 71 76 7a 7c 7d 81 80 8c     c\__bejkqvz|}...
    321c:	96 94 97 97 99 9a 9a 9b 97 98 99 97 94 93 8b 7e     ...............~
    322c:	7b 7a 79 77 74 74 71 74 74 72 72 6f 6f 6d 79 7a     {zywttqttrroomyz
    323c:	78 76 74 74 76 78 79 77 7b 7c 7e 80 83 7c 77 7a     xvttvxyw{|~..|wz
    324c:	7c 7e 81 83 83 87 8c 8e 90 90 93 91 95 9e 99 97     |~..............
    325c:	93 91 8e 8b 8a 82 80 7d 7c 79 79 74 68 63 64 62     .......}|yythcdb
    326c:	62 62 61 60 65 69 6d 6f 71 75 76 84 8c 8c 8e 8f     bba`eimoquv.....
    327c:	8f 91 92 94 91 91 93 94 95 98 91 89 8a 86 85 82     ................
    328c:	81 7f 7c 7f 7e 7b 7a 78 77 77 80 81 7d 7d 79 79     ..|.~{zxww..}}yy
    329c:	77 75 72 6e 6e 70 72 74 78 6e 6c 71 71 76 77 7b     wurnnprtxnlqqvw{
    32ac:	7c 7f 86 87 8a 8a 8d 8c 96 9f 9f a0 a0 9e 9a 98     |...............
    32bc:	96 8e 8b 89 85 83 83 7b 70 6e 6c 6b 6a 68 66 65     .......{pnlkjhfe
    32cc:	67 6a 68 66 67 67 6b 78 80 81 82 85 88 88 8b 89     gjhfggkx........
    32dc:	89 8a 8a 8d 8e 91 88 81 86 86 89 88 8a 89 89 8a     ................
    32ec:	89 88 83 84 7e 82 8b 88 85 85 81 81 7e 7e 7a 75     ....~.......~~zu
    32fc:	72 71 6e 6d 6c 62 62 66 66 6a 6a 6f 71 77 7b 7f     rqnmlbbffjjoqw{.
    330c:	7f 81 84 86 90 9a 99 9b 9a 9d 9d 9d 9f 99 97 93     ................
    331c:	91 8c 8c 83 78 75 75 75 72 72 73 70 74 77 73 79     ....xuuurrsptwsy
    332c:	85 81 81 82 7f 7d 7e 7c 7a 7c 72 64 66 63 64 65     .....}~|z|rdfcde
    333c:	65 64 65 66 68 73 7c 7b 7c 7d 80 84 86 88 88 88     edefhs|{|}......
    334c:	7c 7a 7d 7d 7e 7f 82 7f 83 82 84 8d 91 8e 90 91     |z}}~...........
    335c:	8f 90 91 90 91 8d 81 84 85 89 8b 8c 8d 8b 8f 8c     ................
    336c:	96 a0 9d 9c 9b 99 98 96 91 8e 8a 7f 79 79 76 79     ............yyvy
    337c:	75 77 77 75 74 76 80 81 85 85 81 83 80 81 7e 7f     uwwutv........~.
    338c:	78 6e 6b 6c 6d 6c 6b 6b 65 67 66 6d 75 75 75 72     xnklmlkkegfmuuur
    339c:	75 73 73 72 73 74 6d 6a 70 6e 71 75 74 76 78 79     ussrstmjpnqutvxy
    33ac:	78 87 8d 8a 8d 8b 89 89 8a 89 8b 8a 7d 7e 7f 7f     x...........}~..
    33bc:	82 81 83 83 85 85 8f 99 9a 9a 9a 99 9a 9a 98 9a     ................
    33cc:	9a 93 89 8c 88 85 85 86 83 80 83 7d 86 8e 8a 88     ...........}....
    33dc:	89 87 83 86 86 86 86 79 72 76 72 72 73 72 70 73     .......yrvrrsrps
    33ec:	70 71 7d 7c 77 7a 77 75 76 75 74 76 71 63 65 64     pq}|wzwuvutvqced
    33fc:	63 66 67 6a 69 6c 6a 73 7e 7e 80 7f 83 83 81 85     cfgjiljs~~......
    340c:	84 85 79 72 74 77 78 78 7c 7b 7c 7e 7f 89 92 8f     ..yrtwxx|{|~....
    341c:	90 93 97 93 96 95 96 95 89 84 89 88 89 8b 8b 8a     ................
    342c:	8a 87 8b 97 98 96 96 94 94 90 8f 8d 8e 83 7a 7a     ..............zz
    343c:	7d 7d 7d 7a 7b 79 79 78 81 86 84 84 81 81 80 7a     }}}z{yyx.......z
    344c:	79 7a 78 6c 68 68 69 69 68 6a 68 68 69 6a 76 7e     yzxlhhiihjhhijv~
    345c:	7a 7a 7a 79 77 78 78 7a 75 6b 6e 6e 6f 72 6d 70     zzzywxxzuknnormp
    346c:	73 73 72 7c 88 85 89 88 89 8b 8b 8b 8d 92 89 83     ssr|............
    347c:	84 83 87 86 86 88 88 87 88 95 99 99 97 92 94 95     ................
    348c:	94 94 97 93 88 87 86 86 87 85 85 84 88 84 85 93     ................
    349c:	91 8d 8f 8b 8a 89 87 84 86 7e 71 6e 6e 6c 6e 6d     .........~qnnlnm
    34ac:	6c 6d 6d 69 74 7c 78 7a 78 77 7a 7c 78 7a 79 6d     lmmit|xzxwz|xzym
    34bc:	68 6a 67 69 6a 67 69 6a 6b 6a 74 7b 79 7b 7c 7e     hjgijgijkjt{y{|~
    34cc:	7c 81 7f 82 81 74 75 78 7a 7f 80 82 80 84 82 89     |....tuxz.......
    34dc:	96 95 93 95 95 94 95 95 90 91 8a 7f 84 84 84 84     ................
    34ec:	87 85 88 88 87 94 9b 99 9e 9a 9b 97 95 94 92 8f     ................
    34fc:	81 7e 7d 7c 7c 78 7a 73 74 72 76 80 80 80 7d 7e     .~}||xzstrv...}~
    350c:	7d 7b 7b 7b 7a 73 6d 6c 6d 6d 6c 6c 6e 6a 6d 6c     }{{{zsmlmmllnjml
    351c:	72 7c 7b 78 78 76 71 70 72 72 74 68 67 6a 6a 6d     r|{xxvqprrthgjjm
    352c:	6f 6f 72 74 74 7d 89 8d 8d 8d 8d 8e 8f 8e 90 90     oortt}..........
    353c:	8d 82 82 82 7f 80 80 81 82 83 82 8c 94 95 96 95     ................
    354c:	94 96 93 98 9c 9b 91 8b 8b 8b 8a 8a 89 86 86 85     ................
    355c:	82 8d 90 87 89 86 85 83 83 81 80 80 70 6f 6f 6e     ............poon
    356c:	6e 6f 72 71 74 6f 74 80 7e 7d 7e 7a 7c 7b 79 78     norqtot.~}~z|{yx
    357c:	7a 6e 60 64 63 63 65 62 64 64 67 65 71 7b 7a 7b     zn`dccebddgeq{z{
    358c:	7f 85 83 85 86 85 88 7d 78 7b 7d 7d 7e 81 80 80     .......}x{}}~...
    359c:	7e 7e 8d 90 8f 8f 91 8f 90 93 8f 92 8f 83 82 8a     ~~..............
    35ac:	8a 8a 8c 8b 8a 8f 8c 93 9e 9c 9b 9a 9a 97 92 8d     ................
    35bc:	8e 8b 82 79 79 77 79 76 75 76 75 75 73 7f 87 86     ...yywyvuvuus...
    35cc:	84 82 84 80 80 7f 7e 7b 70 6c 6c 6d 6b 67 67 67     ......~{pllmkggg
    35dc:	66 68 6a 75 77 73 73 75 72 72 73 72 79 74 6b 6f     fhjuwssurrsrytko
    35ec:	6f 71 73 74 75 78 79 78 85 8b 8c 8c 86 88 89 89     oqstuxyx........
    35fc:	8a 8b 8b 7f 7c 7f 7e 82 80 82 85 88 8a 8b 99 9a     ....|.~.........
    360c:	9b 99 99 9b 99 98 9a 99 96 8b 86 86 84 85 84 82     ................
    361c:	80 82 7d 84 8e 8a 88 89 85 87 8a 88 86 87 7b 71     ..}...........{q
    362c:	75 71 72 72 72 70 72 71 6f 77 7a 76 79 76 76 75     uqrrrprqowzvyvvu
    363c:	76 74 75 73 65 64 64 63 6a 69 6a 69 6b 6b 6f 7e     vtuseddcjijikko~
    364c:	7f 7f 80 83 82 83 86 83 81 7e 73 75 78 77 7a 7c     .........~suxwz|
    365c:	7d 7b 80 7d 87 92 8f 96 96 96 95 96 97 95 98 8c     }{.}............
    366c:	85 8a 88 8a 8a 8a 86 86 87 88 96 98 97 95 95 94     ................
    367c:	91 90 8f 8c 88 7e 7f 7c 7e 7b 7a 7c 77 79 77 7b     .....~.|~{z|wyw{
    368c:	85 84 83 81 81 7a 79 7b 78 78 71 66 68 68 68 66     .....zy{xxqfhhhf
    369c:	69 67 67 69 6c 76 7d 79 78 7a 79 77 77 78 78 78     iggilv}yxzywwxxx
    36ac:	6d 6c 70 6c 6e 6e 6f 73 73 74 7a 86 88 89 89 89     mlplnnosstz.....
    36bc:	8b 89 8d 90 92 8b 82 84 84 85 87 85 89 88 88 89     ................
    36cc:	92 9a 95 94 94 95 95 93 96 94 95 8c 85 87 85 87     ................
    36dc:	84 87 86 87 83 83 8f 90 8c 8e 8a 89 88 86 84 86     ................
    36ec:	7e 6c 6e 6d 6c 6d 6d 6c 6c 6d 68 72 7a 79 79 7a     ~lnmlmmllmhrzyyz
    36fc:	7c 7b 7a 79 7a 79 6f 67 6a 66 69 68 68 69 6a 66     |{zyzyogjfihhijf
    370c:	66 73 7b 7a 7c 7d 7e 7d 82 80 82 83 78 73 7c 7d     fs{z|}~}....xs|}
    371c:	7f 81 82 80 84 82 86 94 95 92 96 93 94 93 91 8e     ................
    372c:	93 8c 81 84 84 84 86 88 87 87 8a 86 92 9e 9d 9b     ................
    373c:	9a 99 97 93 93 91 8f 83 7c 7c 7c 7b 77 74 74 74     ........|||{wttt
    374c:	72 74 7d 82 7e 7e 7d 7d 7a 7b 79 7a 7b 6e 6c 6e     rt}.~~}}z{yz{nln
    375c:	6d 6d 6c 6d 6a 6d 6b 6f 7b 79 77 74 72 72 72 72     mmlmjmko{ywtrrrr
    376c:	73 74 6d 68 6a 6b 6f 6f 71 72 78 7a 7b 88 8c 8e     stmhjkooqrxz{...
    377c:	8e 8d 8f 8e 8f 8f 91 8f 85 80 7e 80 82 80 83 82     ..........~.....
    378c:	84 83 8a 93 96 95 95 95 97 9a 9b 9b 9b 95 8c 8c     ................
    379c:	8b 89 8a 87 86 85 85 81 86 8c 88 88 87 83 85 83     ................
    37ac:	81 80 81 73 6e 6f 6d 70 74 71 72 72 70 72 7e 7e     ...snomptqrrpr~~
    37bc:	7d 7f 7a 7c 7a 7a 77 74 6f 64 63 64 63 65 62 65     }.z|zzwtodcdcebe
    37cc:	64 68 67 6d 7b 7b 80 83 84 84 85 87 84 88 81 79     dhgm{{.........y
    37dc:	7d 7c 7d 7e 81 7c 7d 7f 7e 8a 91 8e 92 90 91 90     }|}~.|}.~.......
    37ec:	93 90 93 91 87 87 8b 89 8c 8c 8b 8c 8f 8c 90 9e     ................
    37fc:	9c 9b 9a 99 94 8e 90 8c 8a 85 79 78 77 77 74 76     ..........yxwwtv
    380c:	75 73 75 74 7f 87 85 83 82 83 7f 80 7e 7c 7e 71     usut........~|~q
    381c:	6b 6e 6a 67 65 67 65 68 67 67 73 78 73 75 74 74     knjgegehggsxsutt
    382c:	73 73 76 7b 76 6e 6e 70 73 74 72 77 78 7a 7b 81     ssv{vnnpstrwxz{.
    383c:	8d 89 89 88 89 8c 89 8c 8b 8c 84 7e 7f 7f 82 7f     ...........~....
    384c:	84 88 8a 8a 8c 94 9a 9b 98 99 9c 98 99 99 99 96     ................
    385c:	89 84 85 84 84 83 81 80 81 7d 80 8c 89 89 89 88     .........}......
    386c:	8b 8a 86 85 86 7e 73 73 72 71 73 70 71 72 6d 69     .....~ssrqspqrmi
    387c:	73 7b 77 79 77 77 77 76 75 76 73 6a 64 66 68 6b     s{wywwwvuvsjdfhk
    388c:	68 69 69 6b 6a 6d 7b 81 7e 82 82 83 83 82 7e 83     hiikjm{.~.....~.
    389c:	81 74 76 78 78 79 7c 7b 7d 7f 7e 84 94 94 95 97     .tvxxy|{}.~.....
    38ac:	95 96 96 96 95 98 8e 86 8a 88 8a 8a 85 86 87 88     ................
    38bc:	87 94 98 97 97 94 95 8f 90 8e 8c 8f 82 7c 7e 7c     .............|~|
    38cc:	7c 79 7b 77 79 77 7a 84 86 82 80 7b 7b 79 7b 78     |y{wywz....{{y{x
    38dc:	78 74 67 67 69 67 6a 6f 6c 6c 6d 6b 73 7d 78 79     xtggigjollmks}xy
    38ec:	78 73 71 72 73 74 74 6b 68 6b 6b 71 73 77 78 77     xsqrsttkhkkqswxw
    38fc:	7a 7c 89 8c 8c 8e 8b 8a 88 8a 8a 8c 88 7f 7e 7f     z|............~.
    390c:	81 83 86 89 87 89 89 8f 9a 9b 9a 98 97 93 94 95     ................
    391c:	95 95 8f 85 88 85 87 89 89 86 87 83 82 8c 8f 8d     ................
    392c:	8d 89 83 84 82 7f 82 7d 71 6e 6f 6d 71 72 72 72     .......}qnomqrrr
    393c:	72 6f 74 7d 7d 7d 7c 78 75 75 74 74 74 6e 63 63     rot}}}|xuutttncc
    394c:	64 64 68 68 6a 69 6c 6c 76 82 7f 80 83 7e 7e 81     ddhhjillv....~~.
    395c:	81 81 84 78 74 78 78 7a 80 82 80 85 83 84 93 96     ...xtxxz........
    396c:	93 96 93 8f 91 91 90 93 8f 83 85 86 84 89 8d 8b     ................
    397c:	8d 8e 8c 94 9e 9c 9b 9a 96 90 8f 8e 8b 8c 83 78     ...............x
    398c:	79 77 77 79 7c 78 79 78 76 81 86 83 82 81 7b 79     ywwy|xyxv.....{y
    399c:	7a 79 77 78 6a 66 69 68 68 6d 6e 6a 6e 6b 6e 7a     zywxjfihhmnjnknz
    39ac:	7b 77 7a 75 72 71 73 72 75 70 69 6a 6c 6e 73 75     {wzurqsrupijlnsu
    39bc:	79 79 79 7c 84 8c 8d 8d 8d 8b 88 8a 8a 8a 8b 82     yyy|............
    39cc:	7d 7e 80 83 85 89 88 89 8a 8b 96 9b 98 9a 97 95     }~..............
    39dc:	93 95 95 94 93 88 85 87 84 88 88 85 86 85 80 88     ................
    39ec:	90 8c 8e 8b 85 83 83 7f 80 80 76 6e 6f 6c 6f 70     ..........vnolop
    39fc:	72 71 72 70 71 7a 7f 7d 7e 79 77 75 74 74 75 71     rqrpqz.}~ywuttuq
    3a0c:	67 62 64 62 66 68 69 6a 6b 6b 6f 7f 80 80 83 81     gbdbfhijkko.....
    3a1c:	7d 81 80 80 84 7f 74 78 78 78 7d 82 80 83 85 83     }.....txxx}.....
    3a2c:	8d 97 93 97 96 90 91 91 90 91 93 86 83 85 83 86     ................
    3a3c:	8b 8a 8d 8e 8b 8f 9c 9c 9b 9b 98 92 8e 90 8c 8a     ................
    3a4c:	88 79 78 78 77 77 7c 7b 77 7a 77 7b 86 84 82 83     .yxxww|{wzw{....
    3a5c:	7e 7a 7a 7b 77 7a 71 65 69 68 68 6b 6e 6a 6d 6c     ~zz{wzqeihhknjml
    3a6c:	6b 76 7d 77 7a 77 73 71 74 72 75 73 6c 68 6c 6c     kv}wzwsqtruslhll
    3a7c:	71 74 78 77 7a 7a 7f 8a 8e 8e 8d 8c 8b 88 8c 8b     qtxwzz..........
    3a8c:	8c 87 7e 7e 80 80 84 87 89 87 8a 89 92 9c 9a 99     ..~~............
    3a9c:	9a 96 94 94 96 94 95 8c 84 87 84 87 87 87 85 86     ................
    3aac:	81 84 8e 8e 8d 8d 88 84 83 80 80 81 7a 6f 6e 6d     ............zonm
    3abc:	6d 70 71 73 71 71 6f 76 7e 7e 7e 7b 78 75 74 73     mpqsqqov~~~{xuts
    3acc:	74 73 6c 62 64 64 65 68 69 6a 6b 6d 6c 79 81 7e     tslbddehijkmly.~
    3adc:	83 81 7f 7f 81 7f 83 83 77 75 7a 76 7d 81 80 83     ........wuzv}...
    3aec:	85 82 88 94 95 95 97 92 90 91 8f 90 94 8c 82 84     ................
    3afc:	84 84 8a 8a 8c 8d 8d 8b 96 9d 9b 9b 99 95 8e 90     ................
    3b0c:	8e 89 8b 7e 76 79 77 76 7a 7c 78 7a 78 77 82 86     ...~vywvz|xzxw..
    3b1c:	81 83 81 7a 7a 7b 76 79 75 68 66 69 65 6a 6d 6d     ...zz{vyuhfiejmm
    3b2c:	6b 6e 6a 71 7b 79 79 7a 75 72 73 74 74 74 70 68     knjq{yyzurstttph
    3b3c:	6b 6d 6f 73 78 78 79 7a 7c 85 8e 8c 8e 8c 8b 89     kmosxxyz|.......
    3b4c:	8b 8c 8b 8c 82 7c 80 80 83 86 8a 87 8a 89 8d 99     .....|..........
    3b5c:	9c 99 9a 99 93 94 95 94 96 91 86 85 86 85 88 87     ................
    3b6c:	87 85 84 81 89 8f 8d 8d 8b 83 80 7f 7c 7b 79 6e     ............|{yn
    3b7c:	65 67 64 65 67 68 65 66 63 65 71 77 77 7c 7b 7b     egdeghefceqww|{{
    3b8c:	7b 80 7f 84 82 78 78 7c 7c 82 87 88 8a 8c 8c 93     {....xx||.......
    3b9c:	a0 a0 9f 9c 96 90 8f 8c 88 89 7d 73 72 71 6f 72     ..........}srqor
    3bac:	72 71 6e 6e 6c 76 7b 76 77 73 70 6f 74 74 78 78     rqnnlv{vwspottxx
    3bbc:	70 6e 73 73 7a 7e 81 82 84 86 8b 98 9a 9a 9b 99     pnssz~..........
    3bcc:	98 98 9a 96 96 8c 7f 7e 7c 7b 7b 7d 79 78 78 74     .......~|{{}yxxt
    3bdc:	7b 82 7e 7e 7a 76 72 72 70 6f 6e 64 61 66 67 6d     {.~~zvrrpondafgm
    3bec:	72 76 77 7b 7c 80 8d 93 91 95 92 92 91 94 93 96     rvw{|...........
    3bfc:	94 8a 89 8b 89 88 89 86 84 82 7e 83 8b 89 85 85     ..........~.....
    3c0c:	7e 7b 79 78 76 75 6c 61 63 60 61 63 68 6a 6d 70     ~{yxvulac`achjmp
    3c1c:	71 7f 87 87 89 8b 88 89 8b 8b 8e 8e 85 82 86 85     q...............
    3c2c:	8b 8e 91 91 90 8d 8e 96 95 90 90 8b 85 83 81 7f     ................
    3c3c:	7e 77 6a 6a 69 67 6a 6a 6a 67 68 64 6f 78 79 7d     ~wjjigjjjghdoxy}
    3c4c:	7e 7e 7d 81 81 84 85 7e 78 7d 7d 82 86 8a 8a 8c     ~~}....~x}}.....
    3c5c:	8d 90 9c a2 9e 9f 98 93 8e 8e 89 89 82 75 72 72     .............urr
    3c6c:	6f 72 72 72 6f 70 6c 70 7b 77 76 74 71 6f 73 76     orrroplp{wvtqosv
    3c7c:	76 7c 74 6f 73 75 78 7d 81 82 85 87 87 94 9c 9a     v|tosux}........
    3c8c:	9b 9b 98 99 99 98 95 92 84 7d 7e 7a 7a 7c 7a 78     .........}~zz|zx
    3c9c:	78 74 76 80 80 7c 7d 78 72 72 70 6e 6f 69 61 64     xtv..|}xrrpnoiad
    3cac:	68 69 71 75 78 79 7e 7d 88 92 92 94 95 92 91 95     hiquxy~}........
    3cbc:	94 96 97 8e 88 8c 87 88 88 88 84 82 80 7e 89 89     .............~..
    3ccc:	86 86 80 7c 78 78 74 74 71 63 61 61 60 62 68 6a     ...|xxttqcaa`bhj
    3cdc:	6d 70 72 79 87 87 8a 8b 8a 89 8b 8c 8e 90 8a 82     mpry............
    3cec:	85 87 89 8d 91 90 91 8e 8a 93 96 92 90 8c 86 82     ................
    3cfc:	82 7e 7e 7a 6e 67 69 65 67 68 69 66 66 66 69 78     .~~zngieghifffix
    3d0c:	7b 7c 81 80 7f 81 82 84 86 83 79 7d 7f 7f 86 89     {|........y}....
    3d1c:	8b 8c 8f 8e 97 a2 9f 9e 99 94 8f 8d 8b 88 85 7a     ...............z
    3d2c:	70 72 6e 70 71 70 6f 6d 6d 6b 77 78 76 75 73 70     prnpqpommkwxvusp
    3d3c:	73 75 78 7a 7a 70 72 74 77 7b 81 82 84 86 87 8d     suxzzprtw{......
    3d4c:	9a 9a 9c 9c 9a 98 99 99 95 93 89 7c 7c 7a 78 7b     ...........||zx{
    3d5c:	7a 77 77 75 73 7b 81 7c 7d 78 74 71 71 6f 6d 6f     zwwus{.|}xtqqomo
    3d6c:	65 63 69 6b 6f 75 78 7a 7c 7e 82 91 92 93 96 93     ecikouxz|~......
    3d7c:	93 93 96 95 97 94 89 8b 88 86 86 87 83 82 81 7c     ...............|
    3d8c:	83 89 86 85 81 7d 79 77 76 74 74 68 5f 62 5e 61     .....}ywvtth_b^a
    3d9c:	66 6b 6c 71 73 76 83 8a 88 8d 8b 89 8b 8c 8e 8f     fklqsv..........
    3dac:	8e 84 83 88 86 8c 90 92 90 8e 8a 8d 95 92 8e 8e     ................
    3dbc:	88 82 81 7f 7c 7c 72 68 68 67 65 69 69 68 67 66     ....||rhhgeiihgf
    3dcc:	67 73 7d 7c 81 80 80 80 83 83 87 88 7d 7b 80 7f     gs}|........}{..
    3ddc:	85 88 8c 8d 8e 8f 92 a0 a1 9c 9b 94 90 8d 8a 87     ................
    3dec:	86 7f 71 71 70 6d 70 70 70 6e 6c 6b 71 79 75 75     ..qqpmpppnlkqyuu
    3dfc:	74 71 73 75 77 7a 7c 76 70 76 75 7a 80 82 84 85     tqsuwz|vpvuz....
    3e0c:	88 8a 96 9c 9a 9e 9c 99 99 98 94 93 8d 7f 7b 7b     ..............{{
    3e1c:	77 7a 7b 79 77 75 73 76 81 7e 7b 7b 75 72 6f 70     wz{ywusv.~{{urop
    3e2c:	6d 70 69 64 68 6b 6d 74 79 79 7c 7d 80 8c 93 93     mpidhkmtyy|}....
    3e3c:	95 95 93 92 95 95 97 98 8c 8a 89 86 85 87 85 82     ................
    3e4c:	80 7e 7f 88 88 84 84 7e 7a 77 77 73 74 6c 61 61     .~.....~zwwstlaa
    3e5c:	5f 60 64 6a 6c 70 72 74 7d 8a 8a 8b 8d 8a 8a 8d     _`djlprt}.......
    3e6c:	8e 8e 92 89 83 87 87 8b 8e 91 8e 8e 8a 88 92 93     ................
    3e7c:	8f 8d 8a 83 81 7f 7d 7d 77 6a 67 66 65 66 69 67     ......}}wjgfefig
    3e8c:	67 66 66 6e 7b 7e 7f 82 80 81 82 83 86 8a 83 7a     gffn{~.........z
    3e9c:	7f 81 83 88 8b 8c 8e 8f 90 9b a2 9c 9a 97 8f 8d     ................
    3eac:	8b 87 86 82 76 6f 6f 6d 6f 6f 70 6d 6e 6b 6c 77     ....voomoopmnklw
    3ebc:	77 75 75 73 72 75 77 7a 7d 7a 71 74 76 79 7e 83     wuusruwz}zqtvy~.
    3ecc:	84 85 89 88 92 9d 9b 9e 9d 9b 9a 98 96 93 90 84     ................
    3edc:	7a 7b 78 77 7a 78 77 75 74 72 7d 7f 7b 7a 78 72     z{xwzxwutr}.{zxr
    3eec:	6f 6f 6c 6f 6e 66 67 6b 6d 71 78 7b 7b 7f 80 86     oolonfgkmqx{{...
    3efc:	94 93 95 96 95 93 95 96 95 99 91 89 88 86 83 85     ................
    3f0c:	84 82 7f 7f 7b 84 88 83 83 7f 7b 76 77 73 73 70     ....{.....{vwssp
    3f1c:	65 5e 61 5e 63 6a 6e 6f 74 75 79 88 8a 8b 8d 8d     e^a^cjnotuy.....
    3f2c:	8b 8d 8f 8f 92 8e 85 86 89 89 8f 92 90 8e 8b 88     ................
    3f3c:	8c 93 90 8d 8b 84 80 7f 7c 7b 79 6e 65 68 65 65     ........|{ynehee
    3f4c:	68 68 67 67 66 6a 79 7e 7f 82 82 80 82 84 86 88     hhggfjy~........
    3f5c:	88 7c 7e 81 81 87 8a 8c 8e 8f 90 95 a1 9d 9b 97     .|~.............
    3f6c:	92 8c 8b 87 85 84 7a 6e 6f 6e 6c 6e 70 6d 6d 6b     ......znonlnpmmk
    3f7c:	6a 72 79 75 75 75 75 75 79 7a 7c 7f 74 73 78 78     jryuuuuuyz|.tsxx
    3f8c:	7d 81 84 86 87 89 8d 9b 9d 9c 9f 9c 9a 97 95 93     }...............
    3f9c:	90 8a 7b 7a 79 76 77 79 76 75 73 71 76 7f 7a 7a     ..{zyvwyvusqv.zz
    3fac:	77 73 6f 6f 6d 6d 71 69 66 6a 6d 71 76 7b 7b 7f     wsoommqifjmqv{{.
    3fbc:	7f 83 8f 96 95 96 97 95 94 97 96 99 97 8b 86 87     ................
    3fcc:	82 84 83 82 7f 7f 7a 7e 86 85 82 81 7b 76 76 75     ......z~....{vvu
    3fdc:	71 73 69 5f 60 5f 62 68 6e 70 72 76 76 84 8c 8c     qsi_`_bhnprvv...
    3fec:	8f 8e 8d 8c 90 90 91 93 87 85 89 88 8c 91 90 8d     ................
    3ffc:	8b 88 87 92 90 8c 8c 86 81 7f 7d 7a 7a 73 67 65     ..........}zzsge
    400c:	65 64 65 68 66 66 67 69 72 80 7f 83 85 82 83 84     edehffgir.......
    401c:	87 88 8a 83 7c 81 82 85 89 8d 8d 90 8f 92 9d 9e     ....|...........
    402c:	9a 99 92 8e 89 88 85 83 7f 72 6d 6e 6a 6e 6e 6e     .........rmnjnnn
    403c:	6b 6c 69 6e 77 76 74 77 75 76 78 7b 7c 80 79 73     klinwvtwuvx{|.ys
    404c:	76 79 7a 81 84 85 88 8a 8b 95 9f 9c 9f 9f 9a 98     vyz.............
    405c:	95 92 8f 8d 7e 79 78 76 76 77 77 73 74 71 73 7d     ....~yxvvwwstqs}
    406c:	7c 7a 79 76 70 6e 6f 6e 73 6f 68 6b 6d 70 75 7a     |zyvpnonsohkmpuz
    407c:	7d 7e 82 81 8b 95 95 96 98 96 94 96 97 97 9a 8f     }~..............
    408c:	87 85 83 81 83 81 7f 7d 7c 79 83 85 82 80 7e 78     .......}|y....~x
    409c:	76 75 72 72 6e 62 5e 61 60 67 6d 6f 72 75 77 7d     vurrnb^a`gmoruw}
    40ac:	8c 8c 8e 90 8d 8d 8e 91 91 93 8d 85 88 89 8a 8f     ................
    40bc:	8f 8d 8a 89 84 8d 92 8c 8c 87 82 7f 7d 7b 79 78     ............}{yx
    40cc:	6b 64 66 63 65 68 66 66 67 69 6f 7c 81 81 85 84     kdfcehffgio|....
    40dc:	82 85 86 88 8b 87 7e 7f 81 83 87 8c 8e 8f 91 90     ......~.........
    40ec:	98 9f 9b 97 95 8e 8a 87 86 82 82 76 6c 6e 6b 6c     ...........vlnkl
    40fc:	6d 6e 6c 6b 6b 69 74 76 74 76 78 76 78 7a 7d 7f     mnlkkitvtvxvxz}.
    410c:	7f 75 76 79 7a 7f 83 87 86 8a 89 90 9d 9e 9d a0     .uvyz...........
    411c:	9b 98 95 93 8f 8f 84 78 79 75 75 77 76 75 73 71     .......xyuuwvusq
    412c:	70 77 7e 79 7a 76 72 6f 6e 6f 70 74 6b 68 6e 6e     pw~yzvronoptkhnn
    413c:	74 79 7d 7d 81 81 86 94 96 97 98 97 94 96 98 97     ty}}............
    414c:	9a 94 87 85 82 80 81 81 80 7c 7c 78 7f 86 83 80     .........||x....
    415c:	7f 7a 76 74 73 71 71 65 5e 61 60 66 6b 70 72 75     .zvtsqqe^a`fkpru
    416c:	77 79 88 8d 8d 8f 90 8d 8e 90 91 92 92 87 87 89     wy..............
    417c:	8a 8d 90 8e 8a 89 85 87 90 8e 8a 89 83 7f 7c 7c     ..............||
    418c:	78 79 6f 64 66 63 63 66 66 66 67 69 6c 78 81 82     xyodfccfffgilx..
    419c:	85 86 83 85 86 88 8a 8b 82 7e 83 82 87 8c 8f 8f     .........~......
    41ac:	90 91 92 9d 9b 97 95 90 8a 88 87 82 83 7b 6e 6c     .............{nl
    41bc:	6c 69 6c 6e 6b 6b 6a 68 6d 77 74 77 7a 77 78 7b     lilnkkjhmwtwzwx{
    41cc:	7c 7f 81 7a 74 7a 79 7e 83 87 87 8a 8a 8d 99 a0     |..ztzy~........
    41dc:	9d a0 9d 99 94 93 8f 8e 88 7b 77 76 73 74 77 75     .........{wvstwu
    41ec:	72 73 6e 73 7c 7b 78 78 73 6e 6e 6f 71 75 6f 69     rsns|{xxsnnoquoi
    41fc:	6d 70 71 79 7c 7f 80 83 83 8f 98 97 99 99 96 96     mpqy|...........
    420c:	98 98 9a 98 8b 83 83 7f 80 80 80 7c 7c 78 7a 83     ...........||xz.
    421c:	84 80 80 7a 77 74 74 70 72 6a 5f 5f 62 63 6b 6f     ...zwttprj__bcko
    422c:	73 74 78 78 82 8d 8e 8f 91 8f 8e 8f 92 93 94 8d     stxx............
    423c:	86 89 8b 8c 8e 8e 89 89 86 83 8d 8e 8b 89 85 80     ................
    424c:	7d 7c 79 78 75 66 64 64 62 64 65 66 66 6a 6a 73     }|yxufddbdeffjjs
    425c:	81 82 85 86 85 85 86 89 8a 8c 87 7e 82 82 85 8a     ...........~....
    426c:	8e 8f 90 92 90 99 9c 98 95 92 8b 88 85 83 81 80     ................
    427c:	71 6b 6b 6a 6b 6c 6d 6a 6a 67 69 74 77 75 7a 79     qkkjklmjjgitwuzy
    428c:	79 7b 7d 7f 82 80 76 77 7b 7c 82 85 88 89 8b 8b     y{}...vw{|......
    429c:	93 a0 9e a0 9f 9a 96 92 91 8c 8c 7e 76 76 74 74     ...........~vvtt
    42ac:	75 75 73 71 70 6e 79 7b 79 77 75 6f 6e 6f 71 74     uusqpny{ywuonoqt
    42bc:	75 6a 6c 70 71 77 7b 7f 80 83 82 8a 97 98 99 9a     ujlpqw{.........
    42cc:	98 96 98 98 99 99 90 82 82 80 7d 80 7f 7d 7b 79     ..........}..}{y
    42dc:	77 80 84 81 80 7c 77 73 74 70 71 6e 62 5d 63 64     w....|wstpqnb]cd
    42ec:	6a 6f 73 74 78 79 7d 8c 90 8f 93 90 8f 90 91 92     jostxy}.........
    42fc:	95 90 87 89 8a 8b 8c 8c 8b 87 86 81 88 8e 8b 88     ................
    430c:	87 81 7d 7b 79 77 77 6b 63 63 62 63 65 67 67 69     ..}{ywwkccbceggi
    431c:	6d 6f 7e 84 85 87 87 85 87 88 8a 8c 8b 81 80 85     mo~.............
    432c:	84 89 8d 90 8f 93 8f 93 9c 98 95 92 8d 88 85 84     ................
    433c:	81 80 77 6a 6c 69 69 6c 6c 6b 69 69 66 70 77 77     ..wjliillkiifpww
    434c:	79 7c 7a 7a 7e 7f 81 83 79 77 7b 7c 81 85 88 88     y|zz~...yw{|....
    435c:	8c 8b 90 9d 9f 9f 9f 9c 95 92 90 8d 8b 84 76 75     ..............vu
    436c:	73 72 73 75 72 71 70 6e 74 7c 79 76 76 70 6d 6e     srsurqpnt|yvvpmn
    437c:	71 73 78 6f 6b 6f 72 75 7a 7f 80 82 84 85 91 99     qsxokoruz.......
    438c:	97 9b 98 97 97 98 99 9a 95 87 82 83 7e 7e 80 7d     ............~~.}
    439c:	7c 7b 79 7a 83 81 7f 7e 78 75 73 73 71 70 68 5d     |{yz...~xussqph]
    43ac:	63 66 67 6e 71 74 76 7b 7b 87 90 8f 91 92 92 91     cfgnqtv{{.......
    43bc:	95 95 96 96 8b 86 8c 8a 8c 8c 89 85 84 81 82 7d     ...............}
    43cc:	86 8b 87 84 7d 7d 7a 78 76 74 71 70 70 6e 63 63     ....}}zxvtqppncc
    43dc:	64 65 6a 6b 71 74 75 79 7b 7a 79 81 8e 8f 90 91     dejkqtuy{zy.....
    43ec:	93 93 95 96 9b 9c 9b 9e 9d 8f 87 88 84 82 7f 78     ...............x
    43fc:	77 74 73 72 71 6f 6f 7b 7a 79 7b 7a 78 77 75 74     wtsrqoo{zy{zxwut
    440c:	73 75 76 7c 72 67 6e 6f 73 74 77 79 7c 7d 80 85     suv|rgnostwy|}..
    441c:	89 89 99 9d 9b 9e 9d a0 9e 9d 95 92 90 8b 8c 83     ................
    442c:	76 75 73 71 71 74 73 71 6f 6e 6d 6d 6a 71 79 72     vusqqtsqonmmjqyr
    443c:	70 71 73 76 77 7b 7b 7f 80 83 86 7f 7d 82 81 85     pqsvw{{.....}...
    444c:	85 89 8a 8b 8c 8b 8a 8b 91 9d 99 95 93 90 8e 8b     ................
    445c:	8d 8a 88 86 84 82 75 6e 6f 6c 6a 65 64 64 62 63     ......unoljeddbc
    446c:	60 63 63 6a 78 7e 82 86 86 88 8a 8b 8d 8e 90 90     `ccjx~..........
    447c:	92 86 80 84 84 87 88 8a 8b 8c 8b 8c 8c 88 87 8f     ................
    448c:	92 8c 8c 87 87 83 7e 7a 79 78 75 74 6f 61 62 60     ......~zyxutoab`
    449c:	60 65 65 69 6c 70 71 74 77 77 85 8b 88 8a 8c 8c     `eeilpqtww......
    44ac:	8e 8f 92 92 94 94 99 9c 8f 8e 90 8d 8b 88 86 83     ................
    44bc:	82 7b 77 76 72 78 81 7f 7d 7a 79 77 7a 78 77 75     .{wvrx..}zywzxwu
    44cc:	74 72 73 68 65 6a 6c 6b 6d 70 74 76 79 7a 7e 7e     trshejlkmptvyz~~
    44dc:	83 92 99 99 99 9b 9b 9c 9d 9d 9e 9d 95 92 88 7b     ...............{
    44ec:	7c 79 77 76 73 72 70 72 74 71 70 6e 79 7b 79 78     |ywvsrprtqpny{yx
    44fc:	76 75 6f 6f 72 75 77 78 7e 7b 72 73 78 7d 81 81     vuooruwx~{rsx}..
    450c:	84 85 86 88 89 8c 8d 94 9a 99 9b 9a 96 94 91 8f     ................
    451c:	8c 89 89 8a 87 79 73 74 72 70 6f 6d 6e 68 66 63     .....ystrpomnhfc
    452c:	65 61 67 72 73 75 79 7b 81 84 85 87 88 8b 8c 8e     eagrsuy{........
    453c:	86 80 84 80 82 83 86 88 8a 8b 8c 8e 8b 8c 9a 97     ................
    454c:	94 92 8f 8c 8a 87 84 83 7e 79 79 70 64 66 65 63     ........~yypdfec
    455c:	63 61 61 64 69 6a 6d 6f 72 81 88 86 8a 8a 89 88     caadijmor.......
    456c:	8b 8c 8e 8f 91 92 90 84 87 8e 8e 91 8e 8e 8b 88     ................
    457c:	87 84 82 7d 80 87 83 81 80 7d 7b 79 78 76 77 79     ...}.....}{yxvwy
    458c:	76 74 65 62 63 65 6a 6c 6f 6e 6e 73 73 79 77 81     vtebcejlonnssyw.
    459c:	8e 8e 90 90 96 97 99 9b 99 9c 9b 9e 9d 92 86 83     ................
    45ac:	7f 7f 7d 7a 79 76 76 73 73 71 77 81 81 7e 7b 7a     ..}zyvvssqw..~{z
    45bc:	78 76 74 73 6f 6e 6f 75 6e 68 6c 70 73 76 76 7e     xvtsonounhlpsvv~
    45cc:	82 83 85 86 88 8a 97 9c 9b 9c 99 98 9a 98 97 93     ................
    45dc:	91 8e 8d 85 77 7a 79 77 75 74 72 71 71 6e 6e 6a     ....wzywutrqqnnj
    45ec:	64 6c 74 70 70 70 72 74 78 78 7e 84 84 88 87 7e     dltppprtxx~....~
    45fc:	7c 80 80 83 85 83 83 85 88 89 8b 8b 93 9e 9b 98     |...............
    460c:	98 97 94 92 8f 8a 89 87 83 83 75 69 6b 67 68 66     ..........uikghf
    461c:	64 64 64 64 62 63 68 6e 7c 7f 80 84 84 87 88 8a     ddddbchn|.......
    462c:	89 86 8a 8a 8e 87 80 83 85 86 88 8c 91 90 92 8e     ................
    463c:	8c 88 87 8f 92 8c 88 83 83 7f 7f 7c 7a 78 77 77     ...........|zxww
    464c:	71 68 67 68 66 65 66 67 6b 6d 71 70 71 72 7d 88     qhghfefgkmqpqr}.
    465c:	88 89 8b 8c 8f 8f 93 97 98 99 9a 9a 8e 8d 8f 8d     ................
    466c:	8c 84 81 80 7d 7c 7a 78 75 79 83 7f 82 82 7e 7d     ....}|zxuy....~}
    467c:	7a 7a 77 76 74 74 72 64 5f 66 68 6b 6d 71 72 75     zzwvttrd_fhkmqru
    468c:	77 7b 81 83 87 95 96 97 9a 99 9b 9c 9b 99 99 99     w{..............
    469c:	96 94 8a 7e 7d 7b 77 79 7b 78 76 75 74 73 71 6e     ...~}{wy{xvutsqn
    46ac:	7a 7b 75 72 72 70 70 70 71 73 77 77 7d 7e 76 76     z{urrpppqsww}~vv
    46bc:	7b 7c 7e 80 82 84 86 87 84 86 88 91 9c 9b 9b 9b     {|~.............
    46cc:	99 97 96 96 92 90 8d 8a 87 78 75 75 71 6e 69 6a     .........xuuqnij
    46dc:	67 68 66 65 65 63 67 73 75 79 7c 7d 80 81 84 85     ghfeecgsuy|}....
    46ec:	88 89 8a 87 7f 7b 7e 81 82 85 86 87 88 8d 92 92     .....{~.........
    46fc:	92 91 9b 9a 95 92 90 8d 88 82 82 7e 7e 7a 7b 71     ...........~~z{q
    470c:	66 66 66 68 68 68 67 66 66 68 6b 6f 71 7f 81 81     fffhhhgffhkoq...
    471c:	83 85 87 89 89 8c 8c 8f 90 97 94 89 8a 8d 8d 90     ................
    472c:	8f 8e 8d 87 82 80 7f 7b 83 89 84 83 80 7e 7e 80     .......{.....~~.
    473c:	7e 7b 7b 77 77 73 67 63 64 61 62 66 69 6c 6f 71     ~{{wwsgcdabfiloq
    474c:	74 76 77 80 90 93 93 95 96 96 98 98 99 9a 9a 98     tvw.............
    475c:	98 8e 84 85 81 81 7d 7c 7a 79 7c 78 78 75 77 80     ......}|zy|xxuw.
    476c:	80 7e 7c 79 76 70 71 6e 6e 6e 70 74 6e 69 6b 72     .~|yvpqnnnptnikr
    477c:	76 79 7a 7e 7e 81 83 84 87 88 92 96 96 98 98 9a     vyz~~...........
    478c:	9a 9a 98 95 93 95 93 8c 7e 7c 7b 78 78 74 74 71     ........~|{xxttq
    479c:	6b 6b 68 69 67 6f 76 72 70 70 73 79 7a 7e 7e 82     kkhigovrppsyz~~.
    47ac:	82 86 85 7b 7b 7a 7b 7e 7e 82 83 85 86 88 8a 8b     ...{{z{~~.......
    47bc:	95 a3 a0 9e 9a 96 94 92 8e 8d 89 83 7f 7f 73 6a     ..............sj
    47cc:	6b 6a 68 68 66 67 69 68 67 67 66 6b 79 7f 7f 81     kjhhfgihggfky...
    47dc:	81 80 83 83 86 88 8a 8a 8e 88 7f 86 88 8b 8c 8e     ................
    47ec:	8f 8f 91 8f 8c 8a 84 8b 8f 89 89 85 84 81 7f 7e     ...............~
    47fc:	7c 7f 7b 7c 76 69 66 66 66 64 65 64 64 68 69 6d     |.{|vifffdeddhim
    480c:	6f 71 7d 87 88 89 8e 92 93 94 95 96 97 98 9a 99     oq}.............
    481c:	8e 8a 89 89 88 85 82 81 7e 7e 7b 7a 79 7f 87 86     ........~~{zy...
    482c:	82 82 7e 7e 7a 79 76 72 6f 6e 6d 65 5e 65 67 6a     ..~~zyvronme^egj
    483c:	6d 70 78 79 7d 7e 81 82 85 94 96 98 96 94 95 97     mpxy}~..........
    484c:	97 98 99 99 96 97 8b 83 83 81 7f 7d 7b 79 78 75     ...........}{yxu
    485c:	74 72 6d 69 75 78 75 74 73 71 70 6f 71 78 7a 7c     trmiuxutsqpoqxz|
    486c:	7f 7e 74 76 78 7a 7d 7d 7c 7d 80 81 84 87 87 91     .~tvxz}}|}......
    487c:	9a 9a 9e a1 9e 9e 98 96 94 90 8e 8b 88 75 6f 70     .............uop
    488c:	6c 6e 6c 6b 68 68 66 66 6a 68 6d 77 76 78 7a 7c     lnlkhhffjhmwvxz|
    489c:	7f 80 83 80 82 83 85 88 7f 7a 7e 7e 82 86 8b 8b     .........z~~....
    48ac:	8d 8e 90 93 90 92 9b 99 94 8e 8b 88 87 84 82 81     ................
    48bc:	7d 7c 7c 75 6d 6b 6b 69 69 67 67 65 66 66 67 67     }||umkkiiggeffgg
    48cc:	6b 78 81 80 83 84 86 88 8b 90 92 93 94 96 93 88     kx..............
    48dc:	8a 8b 8e 8d 8b 8b 87 86 83 80 80 7b 84 89 88 89     ...........{....
    48ec:	87 84 83 7f 7f 7d 7a 79 78 71 62 5d 5f 5e 61 65     .....}zyxqb]_^ae
    48fc:	68 6c 6e 70 77 7b 7c 84 90 91 92 94 94 96 96 92     hlnpw{|.........
    490c:	93 96 95 97 98 8f 85 87 81 83 84 82 80 7e 7c 7a     .............~|z
    491c:	78 76 77 82 7e 79 79 75 75 72 72 70 6f 6e 6e 75     xvw.~yyuurrponnu
    492c:	74 6b 6f 72 74 78 7a 7c 7e 81 7d 7f 81 83 8f 97     tkortxz|~.}.....
    493c:	96 97 99 99 9a a0 9e 9c 99 95 93 8d 7e 7b 7b 76     ............~{{v
    494c:	72 70 6f 6e 6d 6c 6b 69 68 6e 78 78 76 76 74 77     rponmlkihnxxvvtw
    495c:	7a 7c 7d 80 82 80 7f 76 75 79 7a 7c 7f 80 83 83     z|}....vuyz|....
    496c:	8a 8c 90 8e 95 a1 a1 9f 9c 99 96 8d 8c 89 86 84     ................
    497c:	81 81 74 6b 6d 69 69 6b 6b 69 6a 69 69 69 67 69     ..tkmiikkijiiigi
    498c:	79 7c 7e 81 81 7f 82 83 84 87 88 89 8c 88 7f 83     y|~.............
    499c:	84 86 8a 8e 8e 90 91 91 8f 8d 8a 91 94 8e 8e 8a     ................
    49ac:	83 81 7e 7d 79 79 76 75 71 64 63 63 61 64 64 67     ..~}yyvuqdccaddg
    49bc:	68 6b 6e 71 74 76 7f 8b 8a 8d 8d 8c 8b 8e 8f 8f     hknqtv..........
    49cc:	93 92 94 95 89 88 8b 89 8b 8b 8a 87 85 82 80 7e     ...............~
    49dc:	7b 7e 88 84 83 81 7d 77 77 74 73 72 71 6e 6f 64     {~....}wwtsrqnod
    49ec:	5e 64 65 6a 70 73 77 79 7b 7d 7f 81 84 93 96 96     ^dejpswy{}......
    49fc:	98 97 95 95 97 97 99 9a 97 97 8c 81 7f 7d 7a 7c     .............}z|
    4a0c:	7c 7b 78 77 75 73 71 71 79 7f 79 7a 76 72 6e 6e     |{xwusqqy.yzvrnn
    4a1c:	6e 70 73 75 78 78 6d 70 73 75 79 7f 81 84 85 87     npsuxxmpsuy.....
    4a2c:	88 8b 8b 94 9f 9c 9f 9f 9c 97 95 91 8f 8c 8a 88     ................
    4a3c:	84 77 71 72 6e 6f 72 71 70 6e 6d 6c 6b 69 6c 77     .wqrnorqpnmlkilw
    4a4c:	75 76 78 79 78 7a 7c 7f 80 83 84 87 7e 7a 7e 7f     uvxyxz|.....~z~.
    4a5c:	82 86 8a 8b 8d 8f 8f 92 90 93 9c 9c 97 95 8f 8a     ................
    4a6c:	86 85 82 81 7e 7d 7c 74 68 67 67 65 68 68 69 66     ....~}|thggehhif
    4a7c:	67 66 6a 6c 6f 7c 85 83 87 87 86 85 88 89 8b 8c     gfjlo|..........
    4a8c:	8e 90 8d 84 84 88 88 8c 91 90 90 8c 8b 87 86 81     ................
    4a9c:	89 8e 8b 88 87 80 7d 7b 79 78 76 73 73 70 64 5f     ......}{yxvsspd_
    4aac:	60 5f 62 68 6d 6e 72 74 77 7a 79 82 8f 8f 91 92     `_bhmnrtwzy.....
    4abc:	91 8f 91 92 94 94 96 96 99 8f 87 87 85 82 85 84     ................
    4acc:	80 7f 7d 7b 79 77 77 82 83 7e 7e 79 75 72 72 70     ..}{yww..~~yurrp
    4adc:	6e 6e 6d 72 6d 66 69 6d 6e 75 7a 7b 7e 80 82 84     nnmrmfimnuz{~...
    4aec:	86 86 92 9b 99 9a 9b 97 99 9a 98 96 94 90 90 89     ................
    4afc:	7c 78 78 75 76 78 75 74 72 72 71 6f 6c 74 7a 78     |xxuvxutrrqoltzx
    4b0c:	76 75 70 70 72 75 77 79 7c 7d 80 76 75 78 7a 7d     vuppruwy|}.vuxz}
    4b1c:	84 85 87 88 8b 8b 8f 8e 94 a1 a0 9f 9c 96 90 8e     ................
    4b2c:	8b 8a 87 83 82 80 76 6c 6d 6a 6a 6c 6d 6a 6a 68     ......vlmjjlmjjh
    4b3c:	68 67 66 68 76 7b 7d 7f 7f 7e 7f 83 84 86 87 89     hgfhv{}..~......
    4b4c:	8b 87 7f 81 84 84 8a 8d 8f 90 92 92 90 8d 8a 92     ................
    4b5c:	94 91 8f 8c 85 82 81 7d 7c 7b 77 78 73 65 64 63     .......}|{wxsedc
    4b6c:	62 64 65 66 66 6a 6c 70 73 73 7f 89 89 8c 8c 8b     bdeffjlpss......
    4b7c:	8a 8d 8d 8f 91 91 94 93 8a 86 8b 89 8c 8c 8b 89     ................
    4b8c:	85 84 80 80 7b 80 88 87 83 83 7d 79 76 77 74 73     ....{.....}yvwts
    4b9c:	72 6f 70 64 5e 62 65 68 70 73 76 78 7a 7c 7f 7f     ropd^behpsvxz|..
    4bac:	84 91 95 94 98 95 94 93 96 96 98 99 99 98 8f 82     ................
    4bbc:	80 7e 7a 7c 7c 7b 79 79 76 76 73 72 7a 7f 7b 7a     .~z||{yyvvsrz.{z
    4bcc:	78 71 70 6d 6d 6e 72 72 77 77 6d 6e 71 73 77 7d     xqpmmnrrwwmnqsw}
    4bdc:	7f 82 83 86 86 89 8a 94 9f 9e a1 a1 9f 9a 96 93     ................
    4bec:	8f 8e 8b 89 84 77 70 71 6f 70 73 71 72 70 70 6d     .....wpqopsqrppm
    4bfc:	6c 68 6d 78 76 77 79 79 79 7b 7d 7e 7f 82 83 85     lhmxvwyyy{}~....
    4c0c:	7e 77 7c 7c 7f 84 88 8b 8d 8f 8f 92 91 93 9e 9f     ~w||............
    4c1c:	9b 99 97 90 8d 8c 8b 88 88 86 83 85 83 83 76 71     ..............vq
    4c2c:	73 77 77 75 75 75 72 74 72 71 71 72 70 6f 74 79     swwuuurtrqqrpoty
    4c3c:	78 7a 77 78 77 75 75 76 74 74 74 73 76 78 72 69     xzwxwuuvtttsvxri
    4c4c:	69 6d 6e 6f 71 74 73 78 78 76 76 78 78 7a 7e 8b     imnoqtsxxvvxxz~.
    4c5c:	8c 8d 8c 8e 8e 8d 90 94 93 95 95 95 95 96 92 88     ................
    4c6c:	86 87 86 89 84 84 86 84 87 87 88 89 8a 89 8a 94     ................
    4c7c:	98 95 95 96 93 92 91 90 8c 8c 89 88 87 86 84 7a     ...............z
    4c8c:	6e 6d 6e 6d 6d 6d 6e 6b 6d 6d 6b 6d 6c 6e 71 76     nmnmmmnkmmkmlnqv
    4c9c:	80 7e 7e 7b 7c 7b 79 7a 7a 77 77 72 71 6f 72 6e     .~~{|{yzzwwrqorn
    4cac:	64 64 69 69 6a 6e 6f 6f 74 79 77 7d 7d 7d 7d 82     ddiijnootyw}}}}.
    4cbc:	8d 92 90 91 90 93 8d 8d 8e 8d 8e 90 8f 8f 91 8f     ................
    4ccc:	85 81 83 83 8a 8a 8a 8b 8b 8b 8e 8c 8d 8e 8e 8b     ................
    4cdc:	96 99 93 91 8f 8f 8b 8c 8b 86 87 85 83 83 82 84     ................
    4cec:	80 74 74 73 74 71 72 73 6f 71 72 6f 6f 6b 6b 69     .ttstqrsoqrookki
    4cfc:	6f 78 7a 79 77 76 75 74 74 74 75 78 77 76 74 77     oxzywvutttuxwvtw
    4d0c:	76 69 68 6b 6e 6e 72 73 6e 71 73 74 77 77 78 79     vihknnrsnqstwwxy
    4d1c:	7b 85 8d 8c 8c 8f 94 91 92 95 91 93 94 93 93 95     {...............
    4d2c:	94 8c 87 83 81 84 83 85 88 85 87 89 88 88 8b 89     ................
    4d3c:	88 94 9d 9b 98 96 95 91 90 8f 8d 8c 8b 88 85 81     ................
    4d4c:	80 7d 70 6e 6f 6f 6d 6e 6e 6d 6d 6d 70 71 72 70     .}pnoomnnmmmpqrp
    4d5c:	6f 72 7d 7f 7d 7b 7b 7b 7a 78 74 73 71 73 72 71     or}.}{{{zxtsqsrq
    4d6c:	73 72 68 63 67 6a 69 70 75 75 76 79 78 7b 7c 7c     srhcgjipuuvyx{||
    4d7c:	7e 7e 88 90 90 8c 8a 8d 8c 8d 8e 8e 8e 90 8e 8f     ~~..............
    4d8c:	90 91 8b 87 87 88 89 89 8a 8c 8a 8b 8c 8c 8d 8e     ................
    4d9c:	8a 87 8a 96 96 91 92 91 8c 8c 8a 89 88 87 89 88     ................
    4dac:	88 86 83 78 72 74 73 72 72 72 71 6f 6c 6b 6b 6c     ...xrtsrrrqolkkl
    4dbc:	6a 6a 6b 76 79 79 77 77 77 7a 7a 79 79 77 79 76     jjkvyywwwzzyywyv
    4dcc:	76 76 77 70 66 6c 6c 69 6c 6e 6f 71 72 73 75 77     vvwpfllilnoqrsuw
    4ddc:	77 78 7a 80 8e 92 8f 91 93 91 92 93 93 92 95 94     wxz.............
    4dec:	92 94 91 8b 82 80 83 84 85 84 86 87 85 89 88 8b     ................
    4dfc:	90 8f 8e 8f 9b 9b 95 96 94 91 90 8f 8c 89 86 83     ................
    4e0c:	81 83 80 80 74 6d 6f 6e 6f 6c 6f 71 71 73 72 6f     ....tmonoloqqsro
    4e1c:	72 71 70 6e 78 7e 7d 7c 78 75 75 74 74 73 71 73     rqpnx~}|xuuttsqs
    4e2c:	70 71 6f 73 6c 63 69 6f 6f 71 74 73 75 77 79 7a     pqoslciooqtsuwyz
    4e3c:	7c 7c 7f 7e 7d 8a 8c 8b 8c 8c 8d 8c 8f 8e 8d 90     ||.~}...........
    4e4c:	8f 91 96 95 94 88 86 86 89 89 89 8a 8a 89 8d 88     ................
    4e5c:	86 89 8a 88 88 93 98 93 91 91 8e 8c 8d 8f 8b 8d     ................
    4e6c:	89 88 88 86 85 7d 72 73 73 74 6e 6e 6d 6c 6d 6b     .....}rsstnnmlmk
    4e7c:	6c 6c 6b 6a 6a 70 78 7a 7c 7c 7b 79 79 79 79 76     llkjjpxz||{yyyyv
    4e8c:	78 76 76 74 79 72 62 65 68 69 6b 6f 6e 70 74 73     xvvtyrbehikonpts
    4e9c:	73 78 76 7c 80 80 8d 91 91 90 92 92 90 94 93 92     sxv|............
    4eac:	93 8d 8e 8f 90 8f 86 80 82 82 85 84 85 86 88 8e     ................
    4ebc:	8e 8c 8e 8f 8e 8c 94 9d 98 96 96 92 8c 8b 89 86     ................
    4ecc:	88 84 83 84 82 80 7a 70 6d 70 73 71 73 72 71 71     ......zpmpsqsrqq
    4edc:	70 70 71 70 6e 6e 73 78 76 78 75 76 77 73 75 74     ppqpnnsxvxuvwsut
    4eec:	72 71 73 71 72 77 77 6b 6b 6d 6e 6f 73 74 74 77     rqsqrwwkkmnosttw
    4efc:	78 78 79 76 77 7a 7b 86 8e 8b 8c 8c 8e 8c 8f 8f     xxyvwz{.........
    4f0c:	91 95 94 94 94 95 94 8c 85 87 87 8a 87 89 86 85     ................
    4f1c:	86 89 88 88 89 89 88 8f 96 95 91 94 94 92 90 90     ................
    4f2c:	8c 8d 8b 88 88 87 84 82 73 6e 6d 6f 6c 6e 6f 6b     ........snmolnok
    4f3c:	6d 6d 6c 6c 6c 6b 6c 73 7b 7f 7e 7c 7a 7d 78 79     mmlllkls{.~|z}xy
    4f4c:	7a 76 77 76 72 70 71 71 68 63 69 68 6b 6e 6e 71     zvwvrpqqhcihknnq
    4f5c:	71 75 78 7c 7d 7c 80 7f 88 92 91 90 93 92 93 90     qux|}|..........
    4f6c:	8f 8e 8f 8f 8e 8e 90 8f 8a 82 81 84 84 88 89 8c     ................
    4f7c:	8b 8b 8e 8c 8d 8e 8e 8d 8f 9b 97 91 90 8f 8c 8b     ................
    4f8c:	89 88 86 87 82 84 82 80 82 77 72 74 74 72 71 72     .........wrttrqr
    4f9c:	71 70 72 6e 6f 71 6a 6a 6a 74 79 78 77 75 77 74     qprnoqjjjtyxwuwt
    4fac:	74 75 73 74 78 77 75 77 79 6f 68 6c 6f 6e 72 73     tustxwuwyohlonrs
    4fbc:	73 73 72 73 75 78 76 7a 79 80 8c 8d 8b 8d 8e 92     ssrsuxvzy.......
    4fcc:	94 94 92 93 94 93 93 95 94 91 86 86 84 84 83 83     ................
    4fdc:	86 85 87 88 87 89 8a 8a 89 89 99 9b 97 98 94 92     ................
    4fec:	91 90 8b 8c 8b 87 87 85 7f 7f 75 6c 6f 6d 6d 6d     ..........ulommm
    4ffc:	6e 6c 6c 6e 6a 6f 73 70 70 6e 77 7f 7c 7c 7b 7b     nllnjosppnw.||{{
    500c:	7a 78 79 73 71 74 71 70 71 73 6e 63 68 69 6a 6d     zxysqtqpqsnchijm
    501c:	71 75 78 78 79 7a 7e 7b 7f 7f 81 8f 91 90 8d 8d     quxxyz~{........
    502c:	8c 8d 8e 8e 8e 91 8f 8f 91 90 8f 87 87 89 8a 8a     ................
    503c:	8a 8b 8b 8b 8d 8b 8d 8d 8f 8b 88 91 97 91 91 8f     ................
    504c:	8d 8b 8c 88 88 87 85 87 88 85 85 7d 73 73 74 71     ...........}sstq
    505c:	72 72 71 71 6f 6b 6a 6c 69 6b 6a 70 78 79 77 76     rrqqokjlikjpxywv
    506c:	78 75 76 7b 78 78 77 77 75 76 77 74 68 6b 6e 6d     xuv{xxwwuvwthknm
    507c:	6c 6c 6e 70 72 72 75 77 78 79 7b 7c 8a 90 90 92     llnprruwxy{|....
    508c:	92 93 92 94 93 92 95 93 93 94 94 91 85 81 82 84     ................
    509c:	83 84 87 85 86 88 88 88 8c 8e 8f 8c 96 9b 97 96     ................
    50ac:	95 90 91 91 8d 8c 8a 83 83 82 80 7f 7a 6d 6e 6e     ............zmnn
    50bc:	6e 6d 6f 6c 6f 73 70 71 72 71 71 70 72 7c 7f 7c     nmolospqrqqpr|.|
    50cc:	7b 7b 74 73 74 74 71 73 71 71 71 72 72 66 66 6d     {{tsttqsqqqrrffm
    50dc:	6e 72 74 73 76 78 78 7a 7c 7d 7c 80 7e 87 8e 8b     nrtsvxxz|}|.~...
    50ec:	8d 8d 8e 8e 8f 8f 8e 90 8f 8e 91 95 96 8d 86 87     ................
    50fc:	89 88 89 8a 8b 8a 8c 8d 89 89 89 89 86 8d 96 93     ................
    510c:	91 90 8e 8c 8c 89 8c 8c 8a 87 89 85 85 82 73 71     ..............sq
    511c:	74 70 72 70 6b 6c 6d 6a 6b 6c 6a 6b 6b 6c 77 7a     tprpklmjkljkklwz
    512c:	78 7b 7c 7a 7a 7a 79 76 78 76 76 75 76 77 6c 63     x{|zzzyvxvvuvwlc
    513c:	6a 69 6a 6f 6e 70 73 75 74 78 78 78 7f 7f 88 94     jijonpsutxxx....
    514c:	90 91 93 93 91 94 94 91 94 93 8e 91 8e 90 8c 80     ................
    515c:	82 84 85 85 85 88 85 8a 8e 8e 8f 8f 8f 8c 8f 9c     ................
    516c:	97 95 95 92 90 8d 87 87 86 85 82 84 7f 7e 80 71     .............~.q
    517c:	6d 70 6d 71 74 71 71 71 71 6f 72 70 6f 71 6e 79     mpmqtqqqqorpoqny
    518c:	7d 77 76 77 75 75 73 75 72 72 72 70 72 71 77 70     }wvwuusurrrprqwp
    519c:	68 6f 6d 6f 73 72 74 76 78 78 7b 7c 76 7b 79 80     homosrtvxx{|v{y.
    51ac:	8e 8c 8c 8d 8e 8c 90 8f 8e 92 95 93 95 95 94 92     ................
    51bc:	87 85 88 8a 88 8a 8a 86 85 88 87 88 89 89 88 89     ................
    51cc:	95 96 91 91 91 92 93 90 8e 8c 8c 88 89 86 85 85     ................
    51dc:	79 70 74 72 71 6d 6d 6b 6b 6d 6a 6c 6b 6a 6c 6a     yptrqmmkkmjlkjlj
    51ec:	72 7b 7a 78 77 7b 7b 79 7a 78 77 78 75 76 76 78     r{zxw{{yzxwxuvvx
    51fc:	72 67 6c 6d 6e 6e 6e 6f 71 74 72 76 77 77 7a 7a     rglmnnnoqtrvwwzz
    520c:	7e 8b 8e 8b 8e 8f 93 94 94 92 94 94 93 95 95 93     ~...............
    521c:	94 89 85 87 89 86 84 85 86 86 88 86 89 89 8a 8a     ................
    522c:	88 93 97 91 93 91 91 92 8f 8d 8c 8c 89 88 88 83     ................
    523c:	86 7b 71 73 73 70 6e 6b 6b 6c 6c 6a 6a 6d 6a 6b     .{qsspnkklljjmjk
    524c:	6a 6e 7a 78 78 77 7b 7a 7a 7a 78 77 79 76 76 75     jnzxxw{zzzxwyvvu
    525c:	78 74 6a 6b 6e 6f 70 6c 6e 72 72 73 75 78 77 7a     xtjknoplnrrsuxwz
    526c:	7b 7b 8b 8e 8c 8d 90 92 94 95 94 94 96 92 95 95     {{..............
    527c:	94 95 8b 85 88 88 87 84 84 86 86 87 87 87 8a 89     ................
    528c:	89 88 91 97 92 92 91 91 93 8f 8d 8c 8c 89 87 88     ................
    529c:	84 85 7f 70 73 73 70 6f 6b 6c 6b 6d 6a 6b 6c 6a     ...psspoklkmjklj
    52ac:	6c 6a 6d 78 7a 77 76 7a 7a 7a 7b 78 78 79 76 75     ljmxzwvzzz{xxyvu
    52bc:	76 77 76 6b 6a 6e 6d 70 6d 6e 70 73 74 74 78 78     vwvkjnmpmnpsttxx
    52cc:	79 7c 7a 88 8e 8d 8d 8f 92 94 94 94 94 95 94 94     y|z.............
    52dc:	96 93 97 8e 85 87 87 88 85 84 86 84 88 87 86 8a     ................
    52ec:	88 8a 88 8d 96 93 93 90 91 92 8f 8e 8d 8c 8a 88     ................
    52fc:	87 84 85 82 73 72 72 72 6f 6c 6b 6c 6c 6b 69 6d     ....srrrolkllkim
    530c:	6b 6c 6b 6b 76 7b 77 77 79 7c 79 7b 79 76 79 76     klkkv{wwy|y{yvyv
    531c:	76 75 76 77 6c 6a 6d 6e 6f 6e 6d 70 72 73 73 77     vuvwljmnonmprssw
    532c:	76 79 7c 7a 83 8f 8c 8c 8f 92 92 94 92 93 95 94     vy|z............
    533c:	92 96 92 95 91 84 87 88 89 84 85 85 86 88 88 88     ................
    534c:	8a 8a 89 88 8c 95 94 91 91 90 93 90 8e 8c 8c 89     ................
    535c:	88 88 85 84 84 75 71 73 70 70 6c 6c 6a 6d 6b 6b     .....uqspplljmkk
    536c:	6b 6b 6a 6c 69 74 7a 78 76 78 7a 7a 7a 79 77 79     kkjlitzxvxzzzywy
    537c:	76 76 76 76 78 70 69 6e 6d 70 6f 6e 71 72 74 75     vvvvxpinmponqrtu
    538c:	77 78 78 7c 7a 81 8f 8c 8e 8f 90 94 94 94 94 94     wxx|z...........
    539c:	95 93 97 94 95 93 86 86 88 88 86 85 86 84 88 88     ................
    53ac:	86 8a 88 89 87 89 95 94 92 92 8f 92 91 8f 8d 8b     ................
    53bc:	8a 87 88 84 84 85 77 70 73 71 71 6d 6c 6b 6c 6b     ......wpsqqmlklk
    53cc:	6b 6c 6c 69 6c 69 71 7b 79 76 78 7a 79 7b 7a 77     klliliq{yvxzy{zw
    53dc:	79 76 75 77 75 78 72 6a 6c 6e 70 6f 6e 6f 73 73     yvuwuxrjlnponoss
    53ec:	74 77 77 78 7b 7a 7e 8d 8c 8d 8e 90 92 94 94 94     twwx{z~.........
    53fc:	94 94 92 96 95 93 95 88 85 87 88 86 86 86 86 87     ................
    540c:	89 87 8b 89 8a 89 88 92 94 92 91 8f 90 92 8e 8c     ................
    541c:	8d 89 88 87 85 84 85 7b 70 74 71 71 6f 6b 6c 6b     .......{ptqqoklk
    542c:	6c 69 6c 6b 6a 6b 6a 6f 7a 79 76 78 7a 7a 7a 79     lilkjkjozyvxzzzy
    543c:	77 77 78 74 77 77 78 74 6a 6b 6e 6e 70 6c 6f 72     wwxtwwxtjknnplor
    544c:	73 73 76 77 78 7a 7b 7c 8b 8f 8c 8f 8f 93 94 94     ssvwxz{|........
    545c:	93 94 95 93 96 94 94 96 8c 84 87 88 86 85 85 84     ................
    546c:	87 88 8a 89 88 86 83 80 86 8e 88 88 85 86 86 82     ................
    547c:	81 7e 7d 7b 7a 77 76 77 6f 63 62 62 64 64 64 69     .~}{zwvwocbbdddi
    548c:	6b 6f 72 73 77 77 7b 7d 80 8f 91 92 94 96 9b 9b     korsww{}........
    549c:	9d 9c 9e 9e 9d 9a 97 94 91 83 7c 7c 79 76 72 6f     ..........||yvro
    54ac:	6f 6c 6c 6b 6a 68 68 66 65 6d 74 70 72 74 7a 7e     ollkjhhfemtprtz~
    54bc:	7f 82 83 86 87 89 8a 8c 90 87 81 83 85 87 84 85     ................
    54cc:	87 88 8a 8c 8b 8b 86 86 81 86 8e 8c 89 87 87 87     ................
    54dc:	85 82 80 7e 7c 7b 78 75 77 71 64 61 63 64 66 65     ...~|{xuwqdacdfe
    54ec:	69 6b 6e 72 73 77 79 7c 7c 80 8d 93 93 94 97 9b     iknrswy||.......
    54fc:	9d 9c 9e 9f 9e 9d 9a 97 93 92 84 7c 7b 79 78 71     ...........|{yxq
    550c:	70 6e 6d 6d 6b 69 69 67 67 63 6c 73 72 72 74 7b     pnmmkiiggclsrrt{
    551c:	7f 7f 82 83 86 87 89 8b 8c 8f 8a 82 83 85 87 85     ................
    552c:	85 87 89 8a 8c 8b 8b 87 86 81 84 8d 8c 88 87 85     ................
    553c:	88 85 82 80 7f 7c 7b 78 77 75 73 66 61 64 64 67     .....|{xwusfaddg
    554c:	65 69 6c 6f 71 74 76 79 7b 7e 7e 8c 92 93 93 96     eiloqtvy{~~.....
    555c:	9b 9c 9d 9d 9f 9f 9d 99 97 93 93 88 7c 7c 79 78     ............||yx
    556c:	72 70 6f 6d 6d 6a 6a 69 68 68 64 6a 72 72 72 74     rpommjjihhdjrrrt
    557c:	79 7e 80 82 84 85 88 88 8a 8b 8e 8d 81 82 85 87     y~..............
    558c:	87 84 88 89 8a 8c 8a 8b 86 86 82 81 8b 8d 88 86     ................
    559c:	84 88 85 82 81 7e 7d 7a 7a 76 75 75 68 62 63 65     .....~}zzvuuhbce
    55ac:	67 67 68 6d 6e 72 74 76 79 7b 7f 7d 89 92 93 94     gghmnrtvy{.}....
    55bc:	95 99 9d 9c 9e 9e 9f 9d 99 97 92 93 89 7d 7a 79     .............}zy
    55cc:	77 74 6e 6f 6c 6b 6b 69 69 66 68 64 67 71 72 72     wtnolkkiifhdgqrr
    55dc:	74 79 7f 81 81 84 85 88 89 8c 8b 8e 8f 83 82 85     ty..............
    55ec:	87 88 84 87 88 8a 8b 8b 89 87 85 83 80 88 8d 88     ................
    55fc:	87 85 87 86 82 81 7e 7c 7b 78 78 74 75 6c 61 63     ......~|{xxtulac
    560c:	65 68 68 68 6d 6d 72 73 77 78 7b 7d 7e 85 92 94     ehhhmmrswx{}~...
    561c:	94 96 99 9e 9c 9e 9e 9f 9c 99 97 93 93 8b 7e 7b     ..............~{
    562c:	7a 78 74 6e 6e 6c 6c 6a 6a 68 67 66 65 64 70 72     zxtnnlljjhgfedpr
    563c:	73 74 79 7f 80 82 83 86 87 89 8b 8b 8e 8f 87 82     sty.............
    564c:	84 87 87 86 86 88 8a 8b 8b 89 88 85 84 80 86 8d     ................
    565c:	88 87 84 86 85 82 7f 7f 7d 7a 78 77 75 75 6f 61     ........}zxwuuoa
    566c:	63 64 69 69 68 6d 6f 71 74 75 7a 7a 7e 7e 84 92     cdiihmoqtuzz~~..
    567c:	93 95 96 99 9d 9e 9d 9f 9f 9d 9a 98 93 92 8d 80     ................
    568c:	79 7a 78 75 70 6d 6d 6b 6b 68 69 67 66 66 63 6e     yzxupmmkkhigffcn
    569c:	72 72 75 76 7e 80 82 84 85 88 8a 8a 8d 8d 91 8a     rruv~...........
    56ac:	81 86 87 88 87 87 89 8b 8b 8b 89 88 84 84 7e 83     ..............~.
    56bc:	8c 88 87 85 84 86 83 80 7f 7c 7c 79 77 76 75 70     .........||ywvup
    56cc:	64 62 65 68 6a 69 6b 6f 70 74 76 79 7a 7e 7e 82     dbehjikoptvyz~~.
    56dc:	8f 95 95 95 98 9c 9e 9d a0 9e 9e 99 97 94 91 90     ................
    56ec:	82 7a 79 77 74 70 6c 6d 6a 6b 68 68 68 66 66 63     .zywtplmjkhhhffc
    56fc:	6b 74 73 75 76 7d 80 82 84 85 88 89 8b 8d 8e 90     ktsuv}..........
    570c:	8c 82 85 86 87 87 85 88 8a 8a 8c 88 87 85 83 80     ................
    571c:	80 8b 89 87 84 84 86 82 81 7e 7d 7c 78 78 75 75     .........~}|xxuu
    572c:	72 65 61 65 68 6a 68 6c 6e 71 74 77 78 7b 7e 7f     reaehjhlnqtwx{~.
    573c:	81 8d 94 95 96 98 9c 9e 9d a0 9d 9d 9a 96 94 90     ................
    574c:	90 84 7a 79 78 75 71 6d 6e 6a 6b 69 68 68 65 66     ..zyxuqmnjkihhef
    575c:	63 68 73 73 75 77 7d 82 81 85 86 88 8a 8a 8d 8d     chssuw}.........
    576c:	90 8e 84 84 86 88 87 86 88 8a 8a 8c 89 88 84 82     ................
    577c:	80 7e 89 89 86 84 82 85 82 81 7e 7d 7a 79 77 76     .~........~}zywv
    578c:	73 74 68 62 65 68 6a 6a 6b 6f 70 75 76 78 7b 7c     sthbehjjkopuvx{|
    579c:	80 80 8a 95 94 97 97 9b 9e 9d a0 9f 9d 9a 96 94     ................
    57ac:	90 90 87 7b 78 77 76 71 6d 6c 6b 6a 68 68 68 65     ...{xwvqmlkjhhhe
    57bc:	66 64 65 71 72 75 77 7c 82 83 85 86 87 8a 8b 8d     fdeqruw|........
    57cc:	8e 8f 91 85 84 87 88 89 86 88 89 8c 8b 8a 87 86     ................
    57dc:	82 81 7e 86 8b 86 85 82 85 83 81 7f 7d 7b 79 77     ..~.........}{yw
    57ec:	76 74 74 6b 62 64 68 6b 69 6b 6e 71 73 76 78 7c     vttkbdhkiknqsvx|
    57fc:	7d 7f 80 87 94 94 96 96 9b 9e 9f 9f 9f 9e 9a 97     }...............
    580c:	94 91 8f 8a 7b 79 78 75 73 6d 6c 6c 6b 68 68 68     ....{yxusmllkhhh
    581c:	65 66 63 64 6e 74 74 78 7a 82 84 84 87 87 8b 8a     efcdnttxz.......
    582c:	8d 8e 90 91 89 83 87 87 89 87 87 8a 8a 8b 89 86     ................
    583c:	84 82 80 7d 82 8a 87 84 83 84 83 81 7f 7d 7a 79     ...}.........}zy
    584c:	78 76 74 73 6d 62 65 68 6a 6b 6b 6e 71 73 77 77     xvtsmbehjkknqsww
    585c:	7b 7c 80 7f 85 93 95 97 97 9a 9e 9f a0 a0 9d 9b     {|..............
    586c:	96 95 91 8f 8b 7e 78 76 75 72 6e 6b 6c 69 69 68     .....~xvurnkliih
    587c:	66 66 65 65 62 6c 73 75 77 79 80 83 83 87 87 8a     ffeeblsuwy......
    588c:	8b 8d 8e 8f 91 8c 84 87 87 8a 87 88 8a 8c 8c 8a     ................
    589c:	87 85 81 81 7d 81 89 87 85 82 83 83 81 7e 7d 7b     ....}........~}{
    58ac:	7b 77 77 75 73 70 63 64 68 6a 6c 6b 6e 72 73 76     {wwuspcdhjlknrsv
    58bc:	78 7a 7d 7f 80 84 91 96 96 98 98 9e 9e a0 9f 9e     xz}.............
    58cc:	9a 97 95 91 8f 8c 80 76 76 75 73 6e 6c 6a 6a 68     .......vvusnljjh
    58dc:	68 66 66 64 65 61 6a 73 75 78 79 80 83 84 86 89     hffdeajsuxy.....
    58ec:	8a 8c 8c 90 8f 93 8d 85 86 89 8a 89 87 8b 8c 8a     ................
    58fc:	89 86 86 82 80 7e 7e 89 87 85 82 82 83 81 7e 7d     .....~~.......~}
    590c:	7a 79 77 76 75 73 72 65 64 67 6b 6c 6b 6e 70 74     zywvusredgklknpt
    591c:	76 78 7a 7d 7f 81 81 8f 97 95 98 98 9e a0 9f a0     vxz}............
    592c:	9e 9a 97 94 92 8e 8e 82 78 78 75 74 6e 6a 6b 69     ........xxutnjki
    593c:	69 67 65 66 64 64 62 67 73 75 78 79 7f 83 85 86     igefddbgsuxy....
    594c:	89 8b 8b 8d 8f 90 92 91 85 86 89 8b 8a 88 89 8b     ................
    595c:	8b 88 87 84 82 80 7e 7b 86 87 85 82 81 83 80 7f     ......~{........
    596c:	7d 7b 79 78 75 75 73 72 68 62 68 6a 6e 6b 6e 71     }{yxuusrhbhjnknq
    597c:	73 76 79 7a 7e 7e 82 81 8c 96 97 97 99 9c a0 9f     svyz~~..........
    598c:	a0 9d 9b 96 94 92 8d 8e 85 77 77 75 73 70 6b 6b     .........wwuspkk
    599c:	69 68 68 66 66 64 64 62 63 71 76 77 7a 7e 83 85     ihhffddbcqvwz~..
    59ac:	87 88 8a 8b 8d 8e 90 91 93 87 86 88 8a 8b 88 89     ................
    59bc:	8c 8a 8a 86 85 81 80 7d 7b 83 89 84 83 80 83 81     .......}{.......
    59cc:	7f 7d 7b 79 78 77 76 73 73 6a 64 67 6a 6e 6c 6e     .}{yxwvssjdgjnln
    59dc:	71 74 75 79 7a 7d 7e 82 81 89 95 97 97 98 9b a0     qtuyz}~.........
    59ec:	a0 9f 9e 9a 98 93 92 8e 8d 87 7a 75 76 73 71 6a     ..........zuvsqj
    59fc:	6b 68 67 68 65 67 64 65 62 63 6f 77 77 7b 7d 83     khghegdebcoww{}.
    5a0c:	86 86 8a 8a 8d 8c 8f 90 91 93 8b 86 89 8a 8c 88     ................
    5a1c:	89 8b 8b 88 86 84 83 7f 7f 7a 81 87 84 81 80 81     .........z......
    5a2c:	82 7e 7d 7b 7a 77 76 75 73 72 6e 63 68 6a 6d 6e     .~}{zwvusrnchjmn
    5a3c:	6d 71 74 75 79 7b 7c 7f 81 83 86 94 96 98 99 9b     mqtuy{|.........
    5a4c:	9f a0 9f 9e 9a 98 93 92 8e 8d 8a 7c 75 76 73 70     ...........|uvsp
    5a5c:	6c 69 6a 68 68 65 66 65 64 64 61 6d 77 77 7b 7d     lijhhefeddamww{}
    5a6c:	82 86 86 89 8a 8c 8e 8e 91 91 93 8e 85 89 89 8c     ................
    5a7c:	89 89 8a 8b 88 86 83 82 7e 7f 7a 7e 86 85 83 80     ........~.z~....
    5a8c:	81 82 7e 7d 7a 79 77 76 74 72 72 6f 66 67 6b 6d     ..~}zywvtrrofgkm
    5a9c:	6f 6d 71 73 76 78 7b 7d 7f 81 83 85 93 97 98 98     omqsvx{}........
    5aac:	9a a0 a1 9f 9f 9a 98 95 91 8f 8b 8b 7e 74 76 73     ............~tvs
    5abc:	71 6c 69 69 68 67 66 65 65 63 63 62 6a 77 78 7a     qliihgfeeccbjwxz
    5acc:	7d 81 85 87 89 8b 8c 8e 8e 91 91 93 90 85 89 89     }...............
    5adc:	8c 89 89 8b 89 89 86 84 82 7e 7e 7a 7c 85 85 81     .........~~z|...
    5aec:	80 7f 82 7f 7e 7b 7a 78 76 74 73 71 71 68 67 6b     ....~{zxvtsqqhgk
    5afc:	6d 70 6d 70 72 76 78 79 7d 7e 81 82 84 8f 98 97     mpmprvxy}~......
    5b0c:	99 9a 9e a1 9f 9e 9b 98 95 91 90 8c 8b 81 74 75     ..............tu
    5b1c:	72 72 6c 6a 68 68 67 65 65 65 62 63 61 67 76 77     rrljhhgeeebcagvw
    5b2c:	7a 7d 80 87 87 89 8b 8b 8e 8f 90 92 93 93 87 88     z}..............
    5b3c:	8a 8b 8b 88 8b 8a 89 86 84 81 80 7d 7c 7a 84 85     ...........}|z..
    5b4c:	82 81 7f 82 80 7d 7c 78 79 76 75 72 71 72 69 66     .....}|xyvurqrif
    5b5c:	6a 6d 6f 6e 6f 74 76 78 7a 7b 7f 81 84 83 8d 97     jmonotvxz{......
    5b6c:	98 98 9a 9d a1 9f 9f 9a 98 94 92 90 8c 8a 84 75     ...............u
    5b7c:	75 72 72 6d 6a 69 68 67 67 64 65 63 64 61 66 73     urrmjihggdecdafs
    5b8c:	79 7a 7c 80 86 86 89 8a 8c 8d 8f 91 91 93 93 8a     yz|.............
    5b9c:	86 8a 8c 8b 8a 8a 8b 89 86 84 81 80 7e 7b 79 80     ............~{y.
    5bac:	87 82 81 7e 81 80 7d 7c 7a 78 76 75 73 72 73 6d     ...~..}|zxvusrsm
    5bbc:	67 6a 6d 6f 70 70 74 76 78 7b 7c 7f 7f 83 82 8a     gjmopptvx{|.....
    5bcc:	96 98 98 9a 9d a1 a0 9e 9b 97 95 91 90 8c 8a 86     ................
    5bdc:	77 75 73 71 6f 69 6a 67 67 67 65 64 63 62 63 63     wusqoijgggedcbcc
    5bec:	72 78 7a 7c 80 85 88 89 8c 8b 8e 8f 91 92 93 95     rxz|............
    5bfc:	8d 86 8a 8a 8c 8a 89 8a 88 85 84 81 80 7c 7c 77     .............||w
    5c0c:	7e 86 82 81 7e 80 80 7e 7d 7a 79 77 75 74 72 74     ~...~..~}zywutrt
    5c1c:	6f 68 6a 6d 6f 70 70 73 75 78 79 7c 7f 7f 83 83     ohjmoppsuxy|....
    5c2c:	87 95 98 99 9a 9b a1 9f 9f 9a 98 95 92 8e 8c 8a     ................
    5c3c:	88 79 74 74 71 6f 69 69 68 67 66 64 65 63 63 63     .yttqoiihgfdeccc
    5c4c:	62 70 7a 79 7e 7f 86 87 89 8b 8c 8e 8f 91 92 92     bpzy~...........
    5c5c:	95 8f 87 89 8b 8c 8b 8a 8b 89 85 84 81 80 7c 7d     ..............|}
    5c6c:	78 7c 84 82 81 7e 80 81 7d 7d 79 78 76 75 74 72     x|...~..}}yxvutr
    5c7c:	72 72 67 69 6c 71 71 6f 73 74 78 79 7c 7e 7f 83     rrgilqqostxy|~..
    5c8c:	83 86 93 98 9a 9a 9c a2 a0 a0 9c 99 96 93 91 8e     ................
    5c9c:	8b 89 7c 73 74 70 6e 6a 68 68 67 65 64 63 62 62     ..|stpnjhhgedcbb
    5cac:	62 62 6c 79 79 7d 7f 84 88 87 8a 8b 8f 90 91 92     bblyy}..........
    5cbc:	91 95 92 87 89 8a 8c 8c 89 89 89 86 84 7f 7e 7c     ..............~|
    5ccc:	7c 79 77 79 82 83 7e 7f 80 7e 7c 7a 79 77 75 75     |ywy..~..~|zywuu
    5cdc:	72 74 73 76 78 6f 6e 72 6f 71 75 77 7a 7b 7f 80     rtsvxonroquwz{..
    5cec:	82 83 86 88 89 8b 98 9e a0 a3 9e 9c 98 96 92 90     ................
    5cfc:	8d 8b 89 85 84 81 7f 75 67 67 66 64 64 63 62 62     .......uggfddcbb
    5d0c:	60 61 62 66 68 6b 6f 70 7c 8c 8a 8c 8f 8e 91 91     `abfhkop|.......
    5d1c:	93 94 96 96 99 98 9a 9a 9b 92 87 85 84 80 7f 7d     ...............}
    5d2c:	7b 7a 77 77 75 73 73 70 70 72 73 7e 7d 7b 7a 76     {zwwusspprs~}{zv
    5d3c:	76 73 74 75 78 7a 7d 7f 80 7d 80 80 77 76 78 7b     vstuxz}..}..wvx{
    5d4c:	7d 7f 81 83 86 86 89 8a 8b 91 94 92 8f 96 9a 94     }...............
    5d5c:	93 8f 8e 8b 87 86 83 82 80 7b 75 75 72 73 67 5f     .........{uursg_
    5d6c:	60 5e 60 60 64 68 6a 6e 6f 74 7a 7c 7e 81 80 8a     `^``dhjnotz|~...
    5d7c:	94 95 96 98 97 9a 9a 9b 9c 9d 99 97 95 92 8e 8e     ................
    5d8c:	86 79 76 76 74 72 71 71 6e 6e 6f 70 6e 6d 6d 6b     .yvvtrqqnnopnmmk
    5d9c:	6a 6b 76 77 78 7b 7c 7f 80 84 81 82 83 86 87 88     jkvwx{|.........
    5dac:	8a 8b 8d 82 81 84 84 88 87 8a 8d 91 8e 8d 8a 88     ................
    5dbc:	85 83 82 7f 88 8c 86 86 82 82 7c 78 76 75 72 72     ..........|xvurr
    5dcc:	70 6f 6f 6d 70 68 63 68 6a 6d 70 78 7a 7d 7f 80     poomphchjmpxz}..
    5ddc:	84 84 87 88 8b 8b 92 9e 9d 9e a0 9c 98 97 93 92     ................
    5dec:	8e 8c 89 87 85 82 80 7a 6d 6d 6a 6d 6e 6c 6c 69     .......zmmjmnlli
    5dfc:	6a 68 67 66 67 69 6c 6e 74 81 86 83 85 85 88 89     jhgfgilnt.......
    5e0c:	8a 8b 8e 8e 91 90 93 93 96 95 8b 8a 90 8d 8b 89     ................
    5e1c:	86 83 82 7f 7f 7b 7b 77 77 75 74 7c 7c 79 77 75     .....{{wwut||ywu
    5e2c:	73 72 70 6f 6e 70 71 75 77 79 7b 7e 7c 76 7b 7c     srponpquwy{~|v{|
    5e3c:	7f 80 83 84 87 88 89 8c 8c 8f 8f 92 8e 92 9b 95     ................
    5e4c:	94 90 8e 8a 88 86 83 82 80 7e 7c 7a 7a 7d 74 69     .........~|zz}ti
    5e5c:	68 66 66 64 65 64 67 6b 6c 70 71 76 75 75 76 7d     hffdedgklpqvuuv}
    5e6c:	8a 8c 8e 90 91 91 93 93 96 97 97 99 99 9f 9d 99     ................
    5e7c:	96 86 82 7f 7d 7c 7a 78 77 75 73 71 71 6c 69 69     ....}|zxwusqqlii
    5e8c:	67 66 70 75 70 72 72 74 77 78 7c 7e 80 85 89 8a     gfpuprrtwx|~....
    5e9c:	8b 8d 8e 88 80 85 85 87 89 8b 8c 8d 8f 8e 89 89     ................
    5eac:	85 84 82 7e 84 8c 87 86 83 82 7f 7e 7c 7c 7d 7c     ...~.......~||}|
    5ebc:	79 78 77 73 73 6e 62 66 68 6b 6f 71 73 75 73 76     yxwssnbfhkoqsusv
    5ecc:	79 7a 7d 7e 82 82 87 94 97 96 99 98 9b 9b 9f 9f     yz}~............
    5edc:	9b 97 95 91 8f 8c 89 86 78 74 74 70 70 6e 6a 66     ........xttppnjf
    5eec:	67 65 64 64 63 62 63 64 67 75 7c 7d 80 81 86 8a     geddcbcdgu|}....
    5efc:	8c 8d 8f 8f 92 92 93 95 94 98 8f 89 8b 8d 8d 88     ................
    5f0c:	87 84 81 80 7f 7b 7b 79 77 76 73 77 81 7c 7e 7f     .....{{ywvsw.|~.
    5f1c:	7d 7a 7a 77 76 75 72 73 74 78 78 7d 7a 72 74 72     }zzwvurstxx}zrtr
    5f2c:	73 77 79 7a 7d 7f 80 84 84 88 88 8a 8c 8f 9c a0     swyz}...........
    5f3c:	a0 9d 98 97 94 90 8f 8c 89 86 84 82 80 7d 7c 6c     .............}|l
    5f4c:	64 65 63 63 62 62 5f 5f 61 65 68 6b 6e 70 72 78     deccbb__aehknprx
    5f5c:	88 8f 8d 91 91 93 93 94 97 98 98 9a 9a 9c 9d 9c     ................
    5f6c:	97 8c 81 80 7f 7c 7b 79 77 76 73 73 71 70 6e 6d     .....|{ywvssqpnm
    5f7c:	70 70 74 7d 7a 78 76 74 75 76 79 7c 7d 80 81 83     ppt}zxvtuvy|}...
    5f8c:	83 81 86 81 78 79 7d 7f 80 83 85 86 88 89 8c 8c     ....xy}.........
    5f9c:	91 90 8e 8a 8c 94 94 8e 8e 89 88 85 84 81 80 7e     ...............~
    5fac:	7a 75 73 72 70 6f 60 5d 5e 5f 63 66 69 6c 6f 72     zusrpo`]^_cfilor
    5fbc:	77 7b 7f 80 83 84 86 91 9a 98 9a 9b 9b 9c 9c 9f     w{..............
    5fcc:	9e 99 95 93 8f 8d 8a 88 7d 72 74 70 71 6e 6d 6d     ........}rtpqnmm
    5fdc:	6a 6e 6e 6d 6c 6b 6a 69 66 6e 79 7b 7e 7f 82 83     jnnmlkjifny{~...
    5fec:	85 84 84 85 88 89 8b 8c 8d 8f 8d 82 85 86 88 8b     ................
    5ffc:	8a 8e 90 8d 89 88 84 84 80 80 7c 7d 88 86 84 81     ..........|}....
    600c:	80 7d 77 74 75 72 71 70 6d 6e 6d 72 73 69 69 6c     .}wturqpmnmrsiil
    601c:	70 72 79 7e 7e 81 82 85 85 88 89 8b 8d 8d 9a a0     pry~~...........
    602c:	a1 a0 9c 97 94 90 8e 8b 89 87 83 82 80 7c 7e 71     .............|~q
    603c:	69 69 6a 6d 69 6a 69 67 67 65 66 69 6b 6f 71 73     iijmijiggefikoqs
    604c:	7c 89 86 85 88 89 8b 8c 8d 90 90 93 94 92 96 95     |...............
    605c:	99 93 8a 8c 8c 87 86 83 82 7f 7d 7b 78 77 76 74     ..........}{xwvt
    606c:	73 71 71 79 77 76 73 73 70 70 6e 70 72 76 78 7a     sqqywvssppnprvxz
    607c:	7c 7d 81 85 7e 7b 7e 80 82 84 85 88 89 8a 8d 8e     |}..~{~.........
    608c:	8f 91 91 8f 88 92 95 90 8e 8b 88 86 83 82 7f 7f     ................
    609c:	7b 7a 77 79 7a 78 6e 64 66 63 64 64 66 6a 6d 70     {zwyzxndfcddfjmp
    60ac:	72 75 78 79 76 7a 7a 85 90 90 92 93 93 95 95 97     ruxyvzz.........
    60bc:	97 9a 9a 9a 9b 9a 96 94 8d 7e 7e 7b 79 77 76 74     .........~~{ywvt
    60cc:	73 71 70 6f 69 67 66 65 64 65 71 71 72 76 78 79     sqpoigfedeqqrvxy
    60dc:	7c 7d 80 82 86 8b 8b 8f 8e 92 91 86 85 87 89 8a     |}..............
    60ec:	8c 8d 8f 90 8e 88 86 85 80 80 7d 7b 85 87 84 81     ..........}{....
    60fc:	80 7d 7c 7a 79 7b 79 78 75 75 73 71 73 6a 67 6b     .}|zy{yxuusqsjgk
    610c:	6d 70 72 76 79 76 78 7a 7c 7e 81 82 85 84 8e 99     mprvyvxz|~......
    611c:	99 9a 9c 9c 9c 9c 9c 98 95 93 8f 8d 8a 87 86 7e     ...............~
    612c:	72 71 6f 6e 6d 69 66 64 65 61 62 61 62 63 67 69     rqonmifdeababcgi
    613c:	6e 7e 80 82 84 87 8d 8d 90 91 93 93 95 94 97 98     n~..............
    614c:	98 99 8d 8c 8e 8c 87 84 81 7f 7d 7b 78 78 75 74     ..........}{xxut
    615c:	72 72 6f 7a 7d 7a 7d 7c 79 79 76 75 73 73 75 79     rroz}z}|yyvussuy
    616c:	7a 7d 7d 82 7b 75 76 74 78 79 7d 7e 81 83 85 86     z}}.{uvtxy}~....
    617c:	88 89 8b 8d 8e 95 9f 9f 9a 98 95 91 8f 8c 89 87     ................
    618c:	85 82 80 7e 7c 7c 73 63 61 61 60 60 5f 60 62 64     ...~||scaa``_`bd
    619c:	68 6b 6e 70 74 76 78 80 90 91 93 95 95 98 97 99     hknptvx.........
    61ac:	99 9b 9a 9d 9c 9e 9a 96 90 82 7b 7c 78 78 76 74     ..........{|xxvt
    61bc:	73 70 70 6f 6e 6c 6b 6e 6d 6c 77 7a 77 77 76 78     spponlknmlwzwwvx
    61cc:	7b 7d 7e 81 82 85 86 87 85 86 8a 81 7c 7f 81 84     {}~.........|...
    61dc:	85 87 88 89 8b 8c 8c 8c 8d 8b 88 85 8a 92 8d 8c     ................
    61ec:	88 87 84 82 7f 7e 7c 7a 74 72 71 6f 6f 67 5d 5f     .....~|ztrqoog]_
    61fc:	62 65 69 6b 6e 72 74 77 7d 7f 82 84 87 87 8c 9a     beiknrtw}.......
    620c:	9b 9c 9c 9c 9e 9e 9f 9e 97 91 90 8e 8b 88 85 82     ................
    621c:	75 70 70 6c 6d 6a 6a 67 6b 6c 6c 6a 6a 67 68 68     upplmjjgklljjghh
    622c:	6b 77 7f 7f 83 84 85 89 88 86 88 8b 8b 8e 8e 91     kw..............
    623c:	90 93 8a 85 88 89 8a 8a 89 8c 8a 86 85 82 81 7f     ................
    624c:	7c 7a 78 7d 85 81 80 7d 7d 78 73 73 71 70 6f 6e     |zx}...}}xssqpon
    625c:	6f 73 75 78 76 6c 70 71 74 7a 7d 80 81 84 85 88     osuxvlpqtz}.....
    626c:	89 8c 8b 8f 8f 91 a0 a0 a0 9b 94 93 8f 8d 89 88     ................
    627c:	84 83 7f 7f 7c 7b 78 6b 66 66 66 69 68 67 66 65     ....|{xkfffihgfe
    628c:	67 68 6b 6e 72 73 77 78 86 8c 8d 8e 8b 8c 8f 8f     ghknrswx........
    629c:	91 91 93 94 96 96 98 99 98 8e 82 83 7f 83 80 7f     ................
    62ac:	7c 7b 79 78 75 74 73 71 70 6e 73 7d 79 78 73 6f     |{yxutsqpns}yxso
    62bc:	70 70 73 76 78 7b 7c 7f 81 81 86 81 79 7c 7d 83     ppsvx{|.....y|}.
    62cc:	86 88 8a 8b 8c 8e 8f 91 92 91 8f 8b 8b 95 93 91     ................
    62dc:	8b 84 84 81 80 7d 7c 7a 78 76 74 73 72 70 63 5e     .....}|zxvtsrpc^
    62ec:	5f 61 67 6b 6d 70 72 76 78 7b 7c 7f 81 82 84 90     _agkmprvx{|.....
    62fc:	98 97 98 94 96 96 98 98 9a 98 98 94 92 8e 8c 8a     ................
    630c:	7e 75 74 73 76 76 72 72 70 6f 6d 6d 6b 6b 68 69     ~utsvvrrpommkkhi
    631c:	65 6d 78 7a 7c 79 7b 7e 7f 82 82 86 86 89 89 8d     emxz|y{~........
    632c:	8c 91 8b 82 84 85 8b 8f 90 90 90 8e 8b 88 86 84     ................
    633c:	82 80 7c 7e 88 87 85 7f 7a 7a 78 75 74 73 71 70     ..|~....zzxutsqp
    634c:	6e 6e 6d 70 71 69 67 6d 6f 77 79 7b 7d 80 82 83     nnmpqigmowy{}...
    635c:	86 86 89 8a 8d 8c 9a 9f a0 9f 9b 99 95 93 8f 8d     ................
    636c:	8a 88 85 83 82 7e 7f 72 69 6a 68 6c 6b 6b 69 69     .....~.rijhlkkii
    637c:	68 65 67 67 6b 6d 71 71 7c 87 88 89 88 87 8b 8a     heggkmqq|.......
    638c:	8d 8d 90 90 93 93 94 95 97 94 88 88 87 86 88 85     ................
    639c:	82 81 7e 7d 7b 79 77 76 74 72 74 7e 7e 7a 78 71     ..~}{ywvtrt~~zxq
    63ac:	72 6f 6f 6f 70 74 76 79 7c 7c 80 81 76 76 79 7c     roooptvy||..vvy|
    63bc:	83 84 85 88 89 8b 8c 8e 8f 91 92 91 90 98 9a 96     ................
    63cc:	92 8c 88 87 83 82 80 7e 7d 7a 79 77 74 75 69 61     .......~}zywtuia
    63dc:	62 60 65 65 67 6a 6c 70 71 75 76 7a 7b 7e 7f 88     b`eegjlpquvz{~..
    63ec:	94 92 95 91 92 93 95 95 97 97 99 99 98 96 92 90     ................
    63fc:	89 7a 7a 78 78 7a 78 76 74 74 71 71 6e 6e 6c 6c     .zzxxzxvttqqnnll
    640c:	6a 6b 77 75 76 75 75 77 79 7b 7d 81 81 84 86 88     jkwuvuuwy{}.....
    641c:	88 8b 8b 81 7f 83 86 8b 8d 8d 90 91 90 8f 8c 8a     ................
    642c:	88 84 83 81 8b 8d 88 86 7e 7d 7c 79 78 77 74 73     ........~}|yxwts
    643c:	72 70 70 6e 6d 66 61 66 69 6f 74 75 78 7a 7d 7e     rppnmfafiotuxz}~
    644c:	81 83 84 86 88 89 91 9d 9b 9e 9a 99 9b 98 97 92     ................
    645c:	91 8d 8c 88 87 83 84 7c 6e 6e 6c 6e 6f 6e 6c 6c     .......|nnlnonll
    646c:	6a 69 67 67 67 66 6a 6b 72 80 84 84 85 83 84 87     jigggfjkr.......
    647c:	88 8a 8c 8c 8f 91 91 92 94 93 8a 87 8b 8b 8f 8b     ................
    648c:	88 87 84 82 80 7e 7c 7a 78 78 74 7f 82 7e 7c 76     .....~|zxxt..~|v
    649c:	73 73 70 6f 6f 6d 70 72 76 78 79 7d 75 70 73 77     sspoomprvxy}upsw
    64ac:	7c 80 81 84 85 88 88 8b 8d 8d 8f 91 92 99 a2 9d     |...............
    64bc:	9a 94 90 8c 8a 87 86 83 81 7e 7d 7c 78 79 70 65     .........~}|xype
    64cc:	65 64 66 67 64 65 66 69 6a 6e 70 74 75 79 7a 7f     edfgdefijnptuyz.
    64dc:	8e 90 91 8f 8e 8f 91 91 93 95 95 98 98 9a 98 98     ................
    64ec:	92 84 7f 7c 7c 7f 7b 7b 78 77 75 73 70 70 6e 6f     ...||.{{xwusppno
    64fc:	6e 6b 76 79 77 74 70 70 73 75 79 7b 7d 7f 82 85     nkvywtppsuy{}...
    650c:	86 87 89 82 7c 80 81 88 89 8c 8d 8f 8d 8f 8d 8e     ....|...........
    651c:	8d 90 9c 9d 9d 9b 98 96 91 8f 83 00                 ............

00006528 <__ctors_end>:
    6528:	11 24       	eor	r1, r1
    652a:	1f be       	out	0x3f, r1	; 63
    652c:	cf ef       	ldi	r28, 0xFF	; 255
    652e:	df e3       	ldi	r29, 0x3F	; 63
    6530:	de bf       	out	0x3e, r29	; 62
    6532:	cd bf       	out	0x3d, r28	; 61
    6534:	00 e0       	ldi	r16, 0x00	; 0
    6536:	0c bf       	out	0x3c, r16	; 60
    6538:	18 be       	out	0x38, r1	; 56
    653a:	19 be       	out	0x39, r1	; 57
    653c:	1a be       	out	0x3a, r1	; 58
    653e:	1b be       	out	0x3b, r1	; 59

00006540 <__do_copy_data>:
    6540:	10 e2       	ldi	r17, 0x20	; 32
    6542:	a0 e0       	ldi	r26, 0x00	; 0
    6544:	b0 e2       	ldi	r27, 0x20	; 32
    6546:	e0 e8       	ldi	r30, 0x80	; 128
    6548:	f6 e6       	ldi	r31, 0x66	; 102
    654a:	00 e0       	ldi	r16, 0x00	; 0
    654c:	0b bf       	out	0x3b, r16	; 59
    654e:	02 c0       	rjmp	.+4      	; 0x6554 <__do_copy_data+0x14>
    6550:	07 90       	elpm	r0, Z+
    6552:	0d 92       	st	X+, r0
    6554:	a2 30       	cpi	r26, 0x02	; 2
    6556:	b1 07       	cpc	r27, r17
    6558:	d9 f7       	brne	.-10     	; 0x6550 <__do_copy_data+0x10>
    655a:	1b be       	out	0x3b, r1	; 59

0000655c <__do_clear_bss>:
    655c:	10 e2       	ldi	r17, 0x20	; 32
    655e:	a2 e0       	ldi	r26, 0x02	; 2
    6560:	b0 e2       	ldi	r27, 0x20	; 32
    6562:	01 c0       	rjmp	.+2      	; 0x6566 <.do_clear_bss_start>

00006564 <.do_clear_bss_loop>:
    6564:	1d 92       	st	X+, r1

00006566 <.do_clear_bss_start>:
    6566:	a4 30       	cpi	r26, 0x04	; 4
    6568:	b1 07       	cpc	r27, r17
    656a:	e1 f7       	brne	.-8      	; 0x6564 <.do_clear_bss_loop>
    656c:	0e 94 35 33 	call	0x666a	; 0x666a <main>
    6570:	0c 94 3e 33 	jmp	0x667c	; 0x667c <_exit>

00006574 <__bad_interrupt>:
    6574:	0c 94 00 00 	jmp	0	; 0x0 <__vectors>

00006578 <__vector_108>:
	sei();	
    while(1);
}

ISR(TCF0_OVF_vect)
{
    6578:	1f 92       	push	r1
    657a:	0f 92       	push	r0
    657c:	0f b6       	in	r0, 0x3f	; 63
    657e:	0f 92       	push	r0
    6580:	08 b6       	in	r0, 0x38	; 56
    6582:	0f 92       	push	r0
    6584:	09 b6       	in	r0, 0x39	; 57
    6586:	0f 92       	push	r0
    6588:	0b b6       	in	r0, 0x3b	; 59
    658a:	0f 92       	push	r0
    658c:	11 24       	eor	r1, r1
    658e:	2f 93       	push	r18
    6590:	8f 93       	push	r24
    6592:	9f 93       	push	r25
    6594:	af 93       	push	r26
    6596:	bf 93       	push	r27
    6598:	ef 93       	push	r30
    659a:	ff 93       	push	r31
	int_cyc--;
    659c:	80 91 00 20 	lds	r24, 0x2000
    65a0:	81 50       	subi	r24, 0x01	; 1
    65a2:	80 93 00 20 	sts	0x2000, r24
	if (int_cyc == 0)
    65a6:	80 91 00 20 	lds	r24, 0x2000
    65aa:	88 23       	and	r24, r24
    65ac:	39 f5       	brne	.+78     	; 0x65fc <__vector_108+0x84>
	{
		int_cyc = 4;
    65ae:	84 e0       	ldi	r24, 0x04	; 4
    65b0:	80 93 00 20 	sts	0x2000, r24
		if (position < 25387) position++;
    65b4:	80 91 02 20 	lds	r24, 0x2002
    65b8:	90 91 03 20 	lds	r25, 0x2003
    65bc:	23 e6       	ldi	r18, 0x63	; 99
    65be:	8b 32       	cpi	r24, 0x2B	; 43
    65c0:	92 07       	cpc	r25, r18
    65c2:	50 f4       	brcc	.+20     	; 0x65d8 <__vector_108+0x60>
    65c4:	80 91 02 20 	lds	r24, 0x2002
    65c8:	90 91 03 20 	lds	r25, 0x2003
    65cc:	01 96       	adiw	r24, 0x01	; 1
    65ce:	80 93 02 20 	sts	0x2002, r24
    65d2:	90 93 03 20 	sts	0x2003, r25
    65d6:	04 c0       	rjmp	.+8      	; 0x65e0 <__vector_108+0x68>
		else
		{
			position = 0;
    65d8:	10 92 02 20 	sts	0x2002, r1
    65dc:	10 92 03 20 	sts	0x2003, r1
		}			
		uint16_t temp = pgm_read_byte(&kraid_song[position]);
    65e0:	e0 91 02 20 	lds	r30, 0x2002
    65e4:	f0 91 03 20 	lds	r31, 0x2003
    65e8:	e4 50       	subi	r30, 0x04	; 4
    65ea:	fe 4f       	sbci	r31, 0xFE	; 254
    65ec:	e4 91       	lpm	r30, Z
    65ee:	f0 e0       	ldi	r31, 0x00	; 0
		TCF0.CCA = temp;
    65f0:	a0 e0       	ldi	r26, 0x00	; 0
    65f2:	bb e0       	ldi	r27, 0x0B	; 11
    65f4:	98 96       	adiw	r26, 0x28	; 40
    65f6:	ed 93       	st	X+, r30
    65f8:	fc 93       	st	X, r31
    65fa:	99 97       	sbiw	r26, 0x29	; 41
	}		
}
    65fc:	ff 91       	pop	r31
    65fe:	ef 91       	pop	r30
    6600:	bf 91       	pop	r27
    6602:	af 91       	pop	r26
    6604:	9f 91       	pop	r25
    6606:	8f 91       	pop	r24
    6608:	2f 91       	pop	r18
    660a:	0f 90       	pop	r0
    660c:	0b be       	out	0x3b, r0	; 59
    660e:	0f 90       	pop	r0
    6610:	09 be       	out	0x39, r0	; 57
    6612:	0f 90       	pop	r0
    6614:	08 be       	out	0x38, r0	; 56
    6616:	0f 90       	pop	r0
    6618:	0f be       	out	0x3f, r0	; 63
    661a:	0f 90       	pop	r0
    661c:	1f 90       	pop	r1
    661e:	18 95       	reti

00006620 <change_to_32MHZ_clk>:

void change_to_32MHZ_clk()
{
	OSC.CTRL |= 0x3;
    6620:	e0 e5       	ldi	r30, 0x50	; 80
    6622:	f0 e0       	ldi	r31, 0x00	; 0
    6624:	80 81       	ld	r24, Z
    6626:	83 60       	ori	r24, 0x03	; 3
    6628:	80 83       	st	Z, r24
	while(!(OSC.STATUS & OSC_RC32MRDY_bm));
    662a:	81 81       	ldd	r24, Z+1	; 0x01
    662c:	81 ff       	sbrs	r24, 1
    662e:	fd cf       	rjmp	.-6      	; 0x662a <change_to_32MHZ_clk+0xa>
	CCP = CCP_IOREG_gc;
    6630:	88 ed       	ldi	r24, 0xD8	; 216
    6632:	84 bf       	out	0x34, r24	; 52
	CLK.CTRL = CLK_SCLKSEL_RC2M_gc;
    6634:	10 92 40 00 	sts	0x0040, r1
}
    6638:	08 95       	ret

0000663a <set_up_PWMgen>:

void set_up_PWMgen()
{
	PORTF.DIRSET |= PIN0_bm;
    663a:	e0 ea       	ldi	r30, 0xA0	; 160
    663c:	f6 e0       	ldi	r31, 0x06	; 6
    663e:	81 81       	ldd	r24, Z+1	; 0x01
    6640:	81 60       	ori	r24, 0x01	; 1
    6642:	81 83       	std	Z+1, r24	; 0x01
	TCF0.CTRLB |= TC0_CCAEN_bm | TC_WGMODE_SINGLESLOPE_gc;
    6644:	e0 e0       	ldi	r30, 0x00	; 0
    6646:	fb e0       	ldi	r31, 0x0B	; 11
    6648:	81 81       	ldd	r24, Z+1	; 0x01
    664a:	83 61       	ori	r24, 0x13	; 19
    664c:	81 83       	std	Z+1, r24	; 0x01
	TCF0.INTCTRLA |= TC_OVFINTLVL_LO_gc;
    664e:	86 81       	ldd	r24, Z+6	; 0x06
    6650:	81 60       	ori	r24, 0x01	; 1
    6652:	86 83       	std	Z+6, r24	; 0x06
	//TCF0.INTCTRLB |= TC_CCAINTLVL_LO_gc;
	TCF0.CNT = 0;
    6654:	10 a2       	lds	r17, 0x90
    6656:	11 a2       	lds	r17, 0x91
	TCF0.CCA = 0;
    6658:	10 a6       	lds	r17, 0xb0
    665a:	11 a6       	lds	r17, 0xb1
	TCF0.PER = 255;
    665c:	8f ef       	ldi	r24, 0xFF	; 255
    665e:	90 e0       	ldi	r25, 0x00	; 0
    6660:	86 a3       	lds	r24, 0x56
    6662:	97 a3       	lds	r25, 0x57
	TCF0.CTRLA = TC_CLKSEL_DIV1_gc;
    6664:	81 e0       	ldi	r24, 0x01	; 1
    6666:	80 83       	st	Z, r24
    6668:	08 95       	ret

0000666a <main>:
volatile uint16_t position = 0;
volatile uint8_t int_cyc = 4;

int main(void)
{
	change_to_32MHZ_clk();
    666a:	0e 94 10 33 	call	0x6620	; 0x6620 <change_to_32MHZ_clk>
	set_up_PWMgen();
    666e:	0e 94 1d 33 	call	0x663a	; 0x663a <set_up_PWMgen>
	PMIC_CTRL = PMIC_LOLVLEN_bm;
    6672:	81 e0       	ldi	r24, 0x01	; 1
    6674:	80 93 a2 00 	sts	0x00A2, r24
	sei();	
    6678:	78 94       	sei
    667a:	ff cf       	rjmp	.-2      	; 0x667a <main+0x10>

0000667c <_exit>:
    667c:	f8 94       	cli

0000667e <__stop_program>:
    667e:	ff cf       	rjmp	.-2      	; 0x667e <__stop_program>
